(dp0
S'fawn'
p1
I6
sS'pistol-whipped'
p2
I3
sS'foul'
p3
I39
sS'four'
p4
I1
sS'jihad'
p5
I1
sS'preface'
p6
I2
sS'underachieve'
p7
I3
sS'shamble'
p8
I21
sS'conjure'
p9
I100
sS'regularize'
p10
I1
sS'isaia'
p11
I1
sS'vegitate'
p12
I1
sS'over-hit'
p13
I1
sS'rupture'
p14
I36
sS'rouse'
p15
I136
sS'scold'
p16
I100
sS'quadruple'
p17
I13
sS'outwit'
p18
I4
sS'tingle'
p19
I200
sS'sputter'
p20
I189
sS'lord'
p21
I9
sS'hermani'
p22
I1
sS'dela'
p23
I1
sS'swivel'
p24
I212
sS'post-up'
p25
I1
sS'test-fired'
p26
I2
sS'stipulate'
p27
I10
sS'bitch-kilt'
p28
I1
sS'yellow'
p29
I1
sS'fur'
p30
I2
sS'replentish'
p31
I1
sS'semaphore'
p32
I1
sS'disturb'
p33
I172
sS'commision'
p34
I1
sS'prize'
p35
I8
sS'buttonhole'
p36
I3
sS'voyeur'
p37
I1
sS'disburden'
p38
I1
sS'oooh'
p39
I4
sS'reframe'
p40
I4
sS'merengue'
p41
I2
sS'fritter'
p42
I3
sS'orientate'
p43
I2
sS'shithead'
p44
I1
sS'charter'
p45
I15
sS'glassy'
p46
I2
sS'sturm'
p47
I1
sS'nigh'
p48
I4
sS'maneuver'
p49
I326
sS'pulse'
p50
I109
sS'kodai'
p51
I1
sS'second'
p52
I5
sS'sooth'
p53
I15
sS'tether'
p54
I37
sS'horseshoe'
p55
I2
sS'livedon'
p56
I1
sS'inanimate'
p57
I2
sS'blouse'
p58
I1
sS'cross-promote'
p59
I1
sS'intermingle'
p60
I7
sS'thunder'
p61
I159
sS'boogie'
p62
I5
sS'ungarble'
p63
I1
sS'pencil-darken'
p64
I1
sS'decry'
p65
I18
sS'succumb'
p66
I104
sS'cull'
p67
I8
sS'crouch'
p68
I860
sS'avert'
p69
I161
sS'splinter'
p70
I12
sS'here'
p71
I1
sS'herd'
p72
I74
sS'hers'
p73
I1
sS'shriek'
p74
I474
sS'unshipp'
p75
I2
sS'buddy'
p76
I1
sS'deodorize'
p77
I2
sS'elaborate'
p78
I27
sS'pullig'
p79
I1
sS'kidd'
p80
I1
sS'personify'
p81
I11
sS'formulate'
p82
I33
sS'divide'
p83
I135
sS're-arrange'
p84
I3
sS'criticise'
p85
I2
sS'lengthen'
p86
I52
sS'replace'
p87
I1014
sS'remnant'
p88
I1
sS'airball'
p89
I4
sS'efeat'
p90
I1
sS'agassi'
p91
I1
sS'co-sign'
p92
I2
sS'browse'
p93
I65
sS'overshadow'
p94
I14
sS'wrong-footed'
p95
I3
sS'untie'
p96
I240
sS'telegraph'
p97
I8
sS'strike'
p98
I3569
sS'musik'
p99
I1
sS'relay'
p100
I138
sS'relax'
p101
I1259
sS'mesmerize'
p102
I26
sS'yahoo'
p103
I1
sS'hurt'
p104
I1286
sS'glass'
p105
I7
sS'export'
p106
I23
sS'goddammit'
p107
I2
sS'hole'
p108
I24
sS'hold'
p109
I15245
sS'unpack'
p110
I93
sS'intake'
p111
I1
sS'simper'
p112
I3
sS'pursue'
p113
I382
sS'debark'
p114
I2
sS'sweeten'
p115
I16
sS'blade'
p116
I23
sS'straddle'
p117
I301
sS'locker'
p118
I3
sS'reword'
p119
I1
sS'compline'
p120
I1
sS'shelve'
p121
I15
sS'sur-round'
p122
I1
sS'exhale'
p123
I495
sS'rework'
p124
I1
sS'completed/complemented'
p125
I1
sS'scavenge'
p126
I16
sS'triple'
p127
I88
sS'wand'
p128
I4
sS'wane'
p129
I76
sS'overextend'
p130
I5
sS'caution'
p131
I63
sS'want'
p132
I13341
sS'reprove'
p133
I1
sS'enervate'
p134
I1
sS'hog'
p135
I10
sS'hoe'
p136
I1
sS'hon'
p137
I1
sS'dimple'
p138
I3
sS'travel'
p139
I1504
sS'feature'
p140
I277
sS'revisit'
p141
I41
sS'hor'
p142
I1
sS'hop'
p143
I787
sS'symposium'
p144
I1
sS'chase'
p145
I757
sS'classify'
p146
I15
sS'utilise'
p147
I2
sS'swing'
p148
I3516
sS'outfight'
p149
I2
sS'diagram'
p150
I1
sS'demonize'
p151
I5
sS'power-walk'
p152
I1
sS'vase'
p153
I1
sS'ture'
p154
I1
sS'did-a'
p155
I1
sS'marginalize'
p156
I3
sS'did-but'
p157
I1
sS'scourge'
p158
I1
sS'revolt'
p159
I12
sS'wink'
p160
I553
sS'winn'
p161
I1
sS'wing'
p162
I15
sS'squint'
p163
I601
sS'wine'
p164
I3
sS'transect'
p165
I1
sS'vary'
p166
I42
sS'handcuff'
p167
I27
sS'ewe'
p168
I2
sS'fir'
p169
I2
sS'fast-rope'
p170
I1
sS'fit'
p171
I819
sS'fix'
p172
I435
sS'baste'
p173
I4
sS'secede'
p174
I7
sS'fib'
p175
I3
sS'fin'
p176
I2
sS'fil'
p177
I4
sS'outmuscle'
p178
I4
sS'undercut'
p179
I17
sS'glorify'
p180
I2
sS'sucker-punch'
p181
I2
sS'meanshock'
p182
I1
sS'enrich'
p183
I8
sS'slate'
p184
I2
sS'commemorate'
p185
I15
sS'memorialize'
p186
I2
sS'interrupt'
p187
I221
sS'silver'
p188
I1
sS'repaint'
p189
I6
sS'padgett'
p190
I1
sS'defecate'
p191
I8
sS'debut'
p192
I27
sS'hand-dipped'
p193
I1
sS'arrow'
p194
I9
sS're-load'
p195
I3
sS'ad-aware'
p196
I1
sS'sleep-walk'
p197
I1
sS'couldent'
p198
I2
sS'whio'
p199
I1
sS'telescope'
p200
I7
sS'swathe'
p201
I8
sS're-enroll'
p202
I1
sS'spider'
p203
I4
sS'power-watch'
p204
I1
sS'exhume'
p205
I6
sS'whiz'
p206
I113
sS'ameliorate'
p207
I1
sS'allay'
p208
I9
sS'whir'
p209
I54
sS'ring'
p210
I1839
sS'whip'
p211
I939
sS'left-center'
p212
I11
sS'itch'
p213
I49
sS'smirk'
p214
I397
sS'waive'
p215
I44
sS'whoosh'
p216
I195
sS'rd'
p217
I1
sS'encourage'
p218
I468
sS'adapt'
p219
I83
sS'auxerre'
p220
I1
sS'conjecture'
p221
I1
sS'waddle'
p222
I76
sS'inscribe'
p223
I11
sS'kayla'
p224
I2
sS"na'an"
p225
I1
sS'estimate'
p226
I163
sS'seduced-awaken'
p227
I1
sS'knit'
p228
I34
sS"'em"
p229
I1
sS'birdie'
p230
I9
sS'connive'
p231
I1
sS'scruff'
p232
I1
sS'takeout'
p233
I1
sS'r.'
p234
I1
sS'symbolize'
p235
I39
sS'instruce'
p236
I1
sS'near-perfection'
p237
I1
sS'goggle'
p238
I1
sS'bullrush'
p239
I1
sS'misplace'
p240
I2
sS'procreate'
p241
I1
sS'wash'
p242
I848
sS'instruct'
p243
I346
sS'kfc'
p244
I1
sS'wasn'
p245
I17
sS'purloin'
p246
I1
sS'service'
p247
I17
sS'traumatize'
p248
I2
sS'outrace'
p249
I6
sS'tango'
p250
I5
sS'master'
p251
I59
sS'underlie'
p252
I6
sS'architect'
p253
I1
sS'postulate'
p254
I6
sS'listen'
p255
I2501
sS'collapse'
p256
I1597
sS'enthrall'
p257
I3
sS'emaciate'
p258
I1
sS'motionless'
p259
I4
sS'force-fed'
p260
I2
sS'carress'
p261
I1
sS'crawl'
p262
I1573
sS'wanted-for'
p263
I1
sS'peerflix'
p264
I1
sS'thatwere'
p265
I1
sS'trek'
p266
I71
sS'remerge'
p267
I1
sS'outlaw'
p268
I21
sS'hibachi'
p269
I1
sS'rusty'
p270
I1
sS'shower'
p271
I369
sS'idle'
p272
I61
sS'endure'
p273
I282
sS'recheck'
p274
I15
sS'acclaim'
p275
I1
sS'entail'
p276
I13
sS'boston'
p277
I1
sS'tase'
p278
I1
sS'spiff'
p279
I3
sS'subordinate'
p280
I1
sS'co-captained'
p281
I1
sS'urinate'
p282
I32
sS're-check'
p283
I4
sS'gripe'
p284
I14
sS'tear-gassed'
p285
I1
sS'season'
p286
I7
sS'enounter'
p287
I1
sS'alayve'
p288
I1
sS'pander'
p289
I3
sS'unknot'
p290
I13
sS'hand-hook'
p291
I1
sS'doin'
p292
I5
sS'object'
p293
I165
sS'victoria'
p294
I1
sS'simplify'
p295
I10
sS'mouth'
p296
I208
sS'addict'
p297
I2
sS'letter'
p298
I5
sS'fluster'
p299
I3
sS'skritch'
p300
I1
sS'expound'
p301
I9
sS'dummy'
p302
I2
sS'upend'
p303
I40
sS'recopy'
p304
I2
sS'grove'
p305
I1
sS'foist'
p306
I1
sS'camp'
p307
I58
sS'consummate'
p308
I4
sS'euthanize'
p309
I6
sS'scream'
p310
I4041
sS'marvel'
p311
I263
sS'incorporate'
p312
I26
sS'long-jumped'
p313
I1
sS'bomb'
p314
I37
sS'uinstall'
p315
I1
sS'dicker'
p316
I4
sS'reschedule'
p317
I18
sS'higher-make'
p318
I1
sS'gauge'
p319
I110
sS'participate'
p320
I260
sS'abreast'
p321
I1
sS'runin'
p322
I1
sS'caper'
p323
I2
sS'busy'
p324
I104
sS'roarie'
p325
I1
sS'headline'
p326
I2
sS'buss'
p327
I1
sS'lmao'
p328
I1
sS'bust'
p329
I73
sS'busk'
p330
I3
sS'theme'
p331
I4
sS'bliss'
p332
I2
sS'x4'
p333
I1
sS'mend'
p334
I35
sS'rice'
p335
I1
sS'plate'
p336
I31
sS'remarry'
p337
I60
sS'pre-empt'
p338
I6
sS'denounce'
p339
I73
sS'untame'
p340
I22
sS'cushion'
p341
I45
sS'relish'
p342
I151
sS'defrock'
p343
I1
sS'backflip'
p344
I3
sS'trick-or-treated'
p345
I1
sS'patch'
p346
I19
sS'approch'
p347
I1
sS'piggy'
p348
I1
sS'release'
p349
I2268
sS'hasten'
p350
I76
sS'require'
p351
I627
sS'respond'
p352
I1757
sS'traverse'
p353
I73
sS'fair'
p354
I1
sS'result'
p355
I327
sS'unstopper'
p356
I2
sS'fail'
p357
I1834
sS'tut-tut-tut'
p358
I1
sS'refought'
p359
I1
sS'hammer'
p360
I246
sS'best'
p361
I17
sS'deadpan'
p362
I2
sS'deuce'
p363
I6
sS'hunker'
p364
I84
sS'freeze'
p365
I1375
sS'irk'
p366
I27
sS'scorn'
p367
I26
sS'pirate'
p368
I1
sS'preserve'
p369
I143
sS'discipline'
p370
I2
sS'extend'
p371
I1027
sS'dynasty'
p372
I1
sS'personalize'
p373
I2
sS'gently-carefully-reach'
p374
I1
sS'reconstitute'
p375
I4
sS'downgrade'
p376
I14
sS'pity'
p377
I20
sS'veer'
p378
I333
sS'disdain'
p379
I15
sS'askew'
p380
I11
sS'login'
p381
I1
sS'argue'
p382
I684
sS'tinge'
p383
I18
sS'schmooze'
p384
I4
sS'eradicate'
p385
I19
sS'rehash'
p386
I11
sS'waaay'
p387
I1
sS'persuad'
p388
I1
sS'double-sheathe'
p389
I1
sS'un-dress'
p390
I1
sS'brindle'
p391
I1
sS'penalize'
p392
I2
sS'froth'
p393
I11
sS'bewilder'
p394
I4
sS'source'
p395
I1
sS'chrome'
p396
I1
sS'subside'
p397
I268
sS'frm'
p398
I2
sS'advert'
p399
I1
sS'crossed-leg'
p400
I1
sS'chink'
p401
I3
sS'rooky'
p402
I1
sS'unstick'
p403
I2
sS'fry'
p404
I70
sS'mothball'
p405
I1
sS'counterattack'
p406
I18
sS'salvageable'
p407
I1
sS'recomend'
p408
I1
sS'spit'
p409
I449
sS'intermarry'
p410
I2
sS'fast-forward'
p411
I6
sS'wish'
p412
I1089
sS'athwart'
p413
I1
sS'joust'
p414
I10
sS'lift'
p415
I5974
sS'dote'
p416
I17
sS'child'
p417
I1
sS'spin'
p418
I2720
sS'self-destructed'
p419
I4
sS'spil'
p420
I2
sS'chill'
p421
I112
sS'dissect'
p422
I17
sS'employ'
p423
I50
sS'excersise'
p424
I1
sS'prostrate'
p425
I10
sS'outdrink'
p426
I1
sS'renominate'
p427
I1
sS'him-he'
p428
I1
sS'wybrzeze'
p429
I1
sS'cold-cocked'
p430
I1
sS'characterize'
p431
I29
sS'elicit'
p432
I60
sS'gentrify'
p433
I1
sS'hone'
p434
I31
sS'jame'
p435
I1
sS'remand'
p436
I3
sS'decant'
p437
I2
sS'honk'
p438
I100
sS'split'
p439
I685
sS'bougth'
p440
I1
sS'rebound'
p441
I179
sS'supper'
p442
I1
sS'featherweight'
p443
I1
sS'tune'
p444
I134
sS'tag-teamed'
p445
I2
sS'backhander'
p446
I1
sS'cannibalize'
p447
I1
sS'unhook'
p448
I154
sS'subpoena'
p449
I8
sS'espiritu'
p450
I1
sS'deleted/blocked'
p451
I1
sS'mentore'
p452
I9
sS'bellow'
p453
I190
sS'distribute'
p454
I103
sS'smelled-wait'
p455
I1
sS'beset'
p456
I4
sS'disguise'
p457
I121
sS'brandish'
p458
I50
sS'lasso'
p459
I6
sS'reboot'
p460
I10
sS'ham'
p461
I6
sS'ease'
p462
I1511
sS'hae'
p463
I2
sS'haf'
p464
I1
sS'ewer'
p465
I1
sS'prison'
p466
I1
sS'falter'
p467
I235
sS'hav'
p468
I1
sS'haw'
p469
I4
sS'quirk'
p470
I18
sS'hyper-ventilate'
p471
I1
sS'collectivize'
p472
I1
sS'shadow'
p473
I63
sS'summons'
p474
I1
sS'desire'
p475
I56
sS'seaside'
p476
I1
sS'steph'
p477
I1
sS'remind'
p478
I1495
sS'right'
p479
I110
sS'creek'
p480
I1
sS'crowd'
p481
I190
sS'scathe'
p482
I1
sS'crown'
p483
I24
sS'mishit'
p484
I1
sS'desensitize'
p485
I1
sS're-install'
p486
I1
sS'animate'
p487
I3
sS'creep'
p488
I1196
sS'ump'
p489
I1
sS'bottom'
p490
I16
sS'lockdown'
p491
I1
sS'rehearse'
p492
I35
sS'postward'
p493
I1
sS'fog'
p494
I35
sS'fob'
p495
I1
sS'umm'
p496
I2
sS'germinate'
p497
I1
sS'yoke'
p498
I1
sS'slither'
p499
I227
sS'recollect'
p500
I15
sS'despair'
p501
I8
sS'transgress'
p502
I1
sS're-lock'
p503
I2
sS'lyght'
p504
I1
sS'meddle'
p505
I5
sS'kisss'
p506
I1
sS'sob'
p507
I532
sS'sod'
p508
I1
sS'exhort'
p509
I2
sS'honeymoon'
p510
I6
sS'overgrow'
p511
I1
sS'administer'
p512
I26
sS'sop'
p513
I7
sS'elith\xc3\xa9a'
p514
I1
sS'sow'
p515
I14
sS'wrap'
p516
I3584
sS'unclip'
p517
I37
sS'clothes-line'
p518
I2
sS'suffice'
p519
I22
sS'tame'
p520
I26
sS'avail'
p521
I5
sS'suppect'
p522
I1
sS'jane'
p523
I1
sS'tamp'
p524
I21
sS'enwall'
p525
I1
sS'overhand'
p526
I1
sS'overhang'
p527
I3
sS'rememberher'
p528
I1
sS'offer'
p529
I3111
sS'seen-a'
p530
I1
sS'roove'
p531
I2
sS'straggle'
p532
I18
sS'safeguard'
p533
I14
sS'eerience'
p534
I37
sS'duel'
p535
I19
sS'genealogy'
p536
I1
sS'tell'
p537
I10369
sS'pontificate'
p538
I1
sS'duet'
p539
I1
sS'kohle'
p540
I1
sS'premire'
p541
I1
sS'car-pooled'
p542
I4
sS'proud'
p543
I1
sS'disgrace'
p544
I5
sS'suborn'
p545
I1
sS'unnerve'
p546
I44
sS'crumble'
p547
I204
sS'soothe'
p548
I241
sS'conquer-wipe'
p549
I1
sS'exist'
p550
I361
sS'splotch'
p551
I2
sS'leer'
p552
I58
sS'floor'
p553
I76
sS'asshole'
p554
I6
sS'flood'
p555
I487
sS'desecrate'
p556
I6
sS'role'
p557
I1
sS'snick'
p558
I6
sS'smell'
p559
I1836
sS'roll'
p560
I6050
sS'intend'
p561
I376
sS"'d"
p562
I5
sS'snooze'
p563
I16
sS'cleaver'
p564
I2
sS'entrust'
p565
I19
sS'lunge'
p566
I1208
sS'expropriate'
p567
I1
sS'time'
p568
I59
sS'push'
p569
I9163
sS'gown'
p570
I2
sS'disassociate'
p571
I5
sS'catalogue'
p572
I8
sS'hurl'
p573
I428
sS'guest'
p574
I2
sS'shimmy'
p575
I120
sS'convoy'
p576
I2
sS'chair'
p577
I39
sS'ose'
p578
I1
sS'sparge'
p579
I1
sS'macht'
p580
I1
sS're-buckle'
p581
I1
sS'vet'
p582
I3
sS'recommand'
p583
I1
sS'weild'
p584
I1
sS'wasat'
p585
I1
sS'freelance'
p586
I7
sS'forour'
p587
I1
sS'vex'
p588
I5
sS'diddnt'
p589
I1
sS'vee'
p590
I1
sS'de-clutter'
p591
I1
sS'veo'
p592
I1
sS'splutter'
p593
I48
sS'persevere'
p594
I49
sS'jerk'
p595
I1840
sS'refinance'
p596
I14
sS'prepair'
p597
I1
sS'embark'
p598
I87
sS'mourn'
p599
I89
sS'bustle'
p600
I83
sS'swiffer'
p601
I1
sS'right-handed'
p602
I1
sS'exact'
p603
I10
sS'tear'
p604
I2419
sS'anaesthetise'
p605
I1
sS'ollie'
p606
I1
sS'leave'
p607
I16331
sS'settle'
p608
I2586
sS'team'
p609
I105
sS'skewer'
p610
I21
sS'reachthem'
p611
I1
sS'unaware'
p612
I1
sS'prevent'
p613
I651
sS're-join'
p614
I4
sS'sigh'
p615
I2083
sS'half-trot'
p616
I1
sS'sign'
p617
I1483
sS'unprotect'
p618
I1
sS'thoght'
p619
I1
sS'did-as'
p620
I1
sS'unschool'
p621
I1
sS'headset'
p622
I1
sS'educate'
p623
I23
sS'convulse'
p624
I122
sS'outscore'
p625
I8
sS'melt'
p626
I544
sS'wriggle'
p627
I234
sS'boost'
p628
I157
sS'meld'
p629
I54
sS'nicoletti'
p630
I1
sS'abscond'
p631
I3
sS'honour'
p632
I1
sS'overstress'
p633
I1
sS'snack'
p634
I17
sS'splice'
p635
I2
sS'address'
p636
I290
sS'enroll'
p637
I26
sS'embibe'
p638
I1
sS'were-so'
p639
I1
sS'root'
p640
I40
sS'queue'
p641
I9
sS'carpett'
p642
I1
sS'reclaim'
p643
I73
sS'oacd'
p644
I1
sS'eulogise'
p645
I1
sS'love'
p646
I3190
sS'co-oped'
p647
I1
sS'prefer'
p648
I394
sS'bloody'
p649
I14
sS'fake'
p650
I137
sS'boylen'
p651
I1
sS'unlash'
p652
I1
sS'engrain'
p653
I1
sS'homesick'
p654
I2
sS'dangle'
p655
I252
sS'optimize'
p656
I1
sS'de-clump'
p657
I1
sS'helter'
p658
I1
sS'afford'
p659
I326
sS'reprise'
p660
I8
sS'refrain'
p661
I67
sS'ignorant'
p662
I1
sS'degrade'
p663
I5
sS'advise'
p664
I215
sS'crash-landed'
p665
I2
sS'pretend'
p666
I629
sS'privy'
p667
I1
sS'vega'
p668
I1
sS'vegg'
p669
I3
sS'dispossess'
p670
I2
sS'logon'
p671
I1
sS'misprounounce'
p672
I1
sS'listend'
p673
I1
sS'parachute'
p674
I7
sS're-establish'
p675
I11
sS'weasele'
p676
I5
sS'evidently'
p677
I1
sS'embrase'
p678
I1
sS'winter'
p679
I3
sS'savor'
p680
I209
sS'rubber-stamped'
p681
I1
sS'jazz'
p682
I4
sS'outsprint'
p683
I1
sS'spot'
p684
I1827
sS'rehabilitate'
p685
I7
sS'drop-kick'
p686
I1
sS'outthink'
p687
I2
sS'date'
p688
I111
sS'such'
p689
I1
sS'suck'
p690
I1576
sS'dove'
p691
I4
sS'stress'
p692
I102
sS'mangy'
p693
I2
sS'correlate'
p694
I3
sS'ss'
p695
I1
sS'st'
p696
I10
sS'remoter'
p697
I1
sS'truck'
p698
I4
sS'out-shout'
p699
I1
sS'sm'
p700
I3
sS'skirmish'
p701
I3
sS'hol'
p702
I1
sS'konk'
p703
I1
sS'feel-until'
p704
I1
sS'mishead'
p705
I1
sS'damage'
p706
I89
sS'course'
p707
I188
sS'yearn'
p708
I83
sS'ogle'
p709
I28
sS'horrify'
p710
I23
sS'bulldoze'
p711
I12
sS'kayake'
p712
I3
sS'splurge'
p713
I25
sS'relegate'
p714
I6
sS'overhaul'
p715
I16
sS'thumb'
p716
I135
sS'half-wonder'
p717
I1
sS'convince'
p718
I457
sS'suspicion'
p719
I1
sS'stroll'
p720
I697
sS'rooster-tailing'
p721
I1
sS'thump'
p722
I214
sS'petition'
p723
I28
sS'laybuy'
p724
I1
sS'iksar'
p725
I1
sS'retrain'
p726
I7
sS'self-combusted'
p727
I1
sS'smarten'
p728
I1
sS'cluck-clucked'
p729
I1
sS'baby-sit'
p730
I3
sS'walked-stagger'
p731
I1
sS'be-dead'
p732
I1
sS'sublimate'
p733
I1
sS'top-edged'
p734
I1
sS'plunk'
p735
I43
sS'didn'
p736
I16
sS'revert'
p737
I38
sS'drop-kicked'
p738
I1
sS'dispite'
p739
I1
sS'quarter'
p740
I3
sS'revere'
p741
I12
sS'filibuster'
p742
I4
sS'square'
p743
I134
sS'retrieve'
p744
I910
sS'like/d'
p745
I1
sS'sponsor'
p746
I67
sS'troll'
p747
I13
sS'jounce'
p748
I6
sS'besprinkle'
p749
I1
sS'abide'
p750
I13
sS'intermix'
p751
I1
sS'intermit'
p752
I1
sS'hibernate'
p753
I7
sS'quito'
p754
I1
sS'underwhelm'
p755
I1
sS'siege'
p756
I1
sS'envelop'
p757
I289
sS'counter-sued'
p758
I1
sS'reshuffle'
p759
I9
sS'disrespect'
p760
I1
sS'jockey'
p761
I12
sS'mime'
p762
I29
sS'plea'
p763
I2
sS'pune'
p764
I1
sS'recon'
p765
I2
sS're-inspect'
p766
I1
sS'gaff'
p767
I1
sS'initiate'
p768
I110
sS'impure'
p769
I1
sS'punt'
p770
I80
sS'loved-and'
p771
I1
sS'neglect'
p772
I39
sS'reassess'
p773
I4
sS'unloose'
p774
I2
sS'potter'
p775
I2
sS'wild-pitched'
p776
I1
sS'mucho'
p777
I1
sS'reopen'
p778
I109
sS'chide'
p779
I55
sS'vote'
p780
I451
sS'febreze'
p781
I1
sS'bear-crawl'
p782
I1
sS'languish'
p783
I36
sS'wathe'
p784
I1
sS'city'
p785
I1
sS'outhit'
p786
I3
sS'smaear'
p787
I1
sS'bite'
p788
I1527
sS'waist'
p789
I7
sS'indicate'
p790
I577
sS'shiver'
p791
I1224
sS'draft'
p792
I139
sS'dissipate'
p793
I103
sS'swoosh'
p794
I11
sS'cite'
p795
I176
sS'co-opt'
p796
I2
sS'bedeck'
p797
I2
sS're-pack'
p798
I1
sS're-act'
p799
I2
sS'snatch'
p800
I964
sS'carbonize'
p801
I1
sS'cower'
p802
I161
sS'stammer'
p803
I65
sS'distill'
p804
I4
sS'rehab'
p805
I7
sS'sophie'
p806
I2
sS'russia'
p807
I1
sS'prospect'
p808
I1
sS'unfist'
p809
I1
sS'whup'
p810
I1
sS'san'
p811
I5
sS'sal'
p812
I1
sS'sag'
p813
I235
sS'sad'
p814
I1
sS'say'
p815
I24841
sS'sap'
p816
I37
sS'saw'
p817
I38
sS'litigate'
p818
I3
sS'understood-sadness'
p819
I1
sS'besmirch'
p820
I1
sS'babysit'
p821
I8
sS'aproach'
p822
I1
sS'knead'
p823
I67
sS'note'
p824
I803
sS'unlearn'
p825
I2
sS'maintain'
p826
I657
sS'take'
p827
I44849
sS'toook'
p828
I1
sS'destroy'
p829
I438
sS'coincide'
p830
I36
sS'pimple'
p831
I4
sS'havarti'
p832
I1
sS'pre-warm'
p833
I1
sS'rosine'
p834
I2
sS'buffer'
p835
I4
sS'compress'
p836
I22
sS'buffet'
p837
I23
sS'abut'
p838
I7
sS'team-code-name'
p839
I1
sS'crochet'
p840
I4
sS'sprinted/hobbled'
p841
I1
sS'knee'
p842
I59
sS'stutter-step'
p843
I1
sS'energize'
p844
I26
sS're-ran'
p845
I1
sS'average'
p846
I298
sS'drive'
p847
I6419
sS'yucatan'
p848
I1
sS'wind'
p849
I948
sS'plea-bargained'
p850
I1
sS'axe'
p851
I5
sS'salt'
p852
I1
sS'intoxicate'
p853
I11
sS'infuriate'
p854
I73
sS'woosh'
p855
I1
sS'merit'
p856
I13
sS'decoupage'
p857
I2
sS'clip-clopped'
p858
I1
sS'slot'
p859
I21
sS'slow'
p860
I2021
sS'slop'
p861
I13
sS'cloak'
p862
I22
sS'debunk'
p863
I9
sS'slog'
p864
I30
sS'outrage'
p865
I2
sS'neath'
p866
I1
sS'dispute'
p867
I32
sS'clank'
p868
I51
sS'reglue'
p869
I1
sS'digitize'
p870
I3
sS'clang'
p871
I81
sS'scissor-kick'
p872
I1
sS'submerge'
p873
I30
sS'yammer'
p874
I1
sS'prime'
p875
I8
sS'assimilate'
p876
I11
sS'stood.lxxviii'
p877
I1
sS'borrow'
p878
I264
sS're-stake'
p879
I1
sS'tryn'
p880
I1
sS'primp'
p881
I5
sS'trye'
p882
I2
sS'uncover'
p883
I91
sS'disparage'
p884
I8
sS'where'
p885
I3
sS'decy'
p886
I3
sS'saut\xc3\xa9ed'
p887
I3
sS'espy'
p888
I5
sS'purest'
p889
I1
sS'3-putted'
p890
I1
sS'bootleg'
p891
I2
sS'sable'
p892
I1
sS'mope'
p893
I12
sS'dunleavy'
p894
I1
sS'presage'
p895
I1
sS'forsake'
p896
I11
sS"d'oeuvre"
p897
I3
sS'apparition'
p898
I1
sS'screen'
p899
I40
sS'scrutinise'
p900
I9
sS'worrry'
p901
I1
sS'concentrate'
p902
I703
sS'spare'
p903
I203
sS'spark'
p904
I756
sS'smoothe'
p905
I2
sS'undermine'
p906
I38
sS'quack'
p907
I1
sS'oust'
p908
I50
sS'circumference'
p909
I1
sS'many'
p910
I1
sS'thame'
p911
I2
sS'belie'
p912
I52
sS'mang'
p913
I1
sS'nausiate'
p914
I1
sS'backpack'
p915
I3
sS'riddle'
p916
I6
sS'panice'
p917
I1
sS'ante'
p918
I2
sS'booby-trapped'
p919
I1
sS'chokeslamm'
p920
I1
sS'twig'
p921
I2
sS'outrush'
p922
I6
sS'boat'
p923
I1
sS'leander'
p924
I1
sS'teddy'
p925
I1
sS'stretch'
p926
I1714
sS'vacation'
p927
I18
sS'concede'
p928
I140
sS'prototype'
p929
I1
sS'luff'
p930
I1
sS'vomitt'
p931
I3
sS'enable'
p932
I186
sS'had-a'
p933
I1
sS'diamondback'
p934
I1
sS'comnplain'
p935
I1
sS're-won'
p936
I1
sS'observe'
p937
I446
sS'wante'
p938
I1
sS'wantd'
p939
I1
sS'diffuse'
p940
I19
sS'queasy'
p941
I1
sS'profane'
p942
I1
sS'over-rule'
p943
I1
sS're-packaged'
p944
I1
sS'straighten'
p945
I879
sS'pertain'
p946
I7
sS'de-fanged'
p947
I1
sS'perpetuate'
p948
I8
sS'canoe'
p949
I4
sS'brow'
p950
I4
sS'purse'
p951
I89
sS'blat'
p952
I1
sS'speedway'
p953
I1
sS'blah'
p954
I17
sS're-arrested'
p955
I1
sS'blab'
p956
I4
sS'ivy'
p957
I1
sS'suplex'
p958
I2
sS'reanimate'
p959
I5
sS'underestimate'
p960
I47
sS'half-hope'
p961
I1
sS'unionize'
p962
I2
sS'nuzzle'
p963
I222
sS'defy'
p964
I124
sS'caugh'
p965
I1
sS'deflate'
p966
I40
sS'shoulder-butt'
p967
I1
sS'remot'
p968
I1
sS'barber'
p969
I1
sS'moved-and'
p970
I1
sS'birthe'
p971
I9
sS'recapture'
p972
I30
sS'mohawk'
p973
I1
sS'pripp'
p974
I1
sS'adjudicate'
p975
I1
sS'tuft'
p976
I1
sS'clobber'
p977
I10
sS'overcorrect'
p978
I6
sS'scholarship'
p979
I1
sS'summer'
p980
I1
sS'trellise'
p981
I1
sS'poach'
p982
I2
sS'nbsplay'
p983
I1
sS'disconcert'
p984
I7
sS'vame'
p985
I1
sS'rest'
p986
I2111
sS'disperse'
p987
I143
sS'vamp'
p988
I1
sS'parlay'
p989
I18
sS'inaudible'
p990
I2
sS'underline'
p991
I24
sS'carpetbag'
p992
I1
sS'wandele'
p993
I1
sS'hand-copied'
p994
I2
sS'reenergize'
p995
I1
sS'regather'
p996
I2
sS'counter-steer'
p997
I1
sS're-forge'
p998
I1
sS'overthrow'
p999
I49
sS'overcompensate'
p1000
I2
sS'y-you'
p1001
I1
sS're-attach'
p1002
I5
sS'back-pedal'
p1003
I1
sS'rejoin'
p1004
I156
sS'dart'
p1005
I640
sS'swirl'
p1006
I597
sS'snarl'
p1007
I481
sS'snark'
p1008
I2
sS'bandage'
p1009
I35
sS'vacuum'
p1010
I31
sS'snarf'
p1011
I4
sS'snare'
p1012
I67
sS'dare'
p1013
I623
sS'clam'
p1014
I8
sS'expunge'
p1015
I6
sS'shutter'
p1016
I36
sS'immolate'
p1017
I2
sS'militate'
p1018
I1
sS'claw'
p1019
I359
sS'inter'
p1020
I1
sS'clap'
p1021
I410
sS'obstruct'
p1022
I23
sS'eensive'
p1023
I1
sS'kolt'
p1024
I1
sS'grub'
p1025
I1
sS'britt'
p1026
I1
sS'lobster'
p1027
I1
sS'shadowbox'
p1028
I2
sS'divine'
p1029
I12
sS'authenticate'
p1030
I8
sS'tote'
p1031
I49
sS'tube'
p1032
I3
sS'tuba'
p1033
I1
sS'leaflete'
p1034
I1
sS'exit'
p1035
I949
sS'pentathlon'
p1036
I1
sS'situate'
p1037
I59
sS'refer'
p1038
I191
sS'better-call'
p1039
I1
sS'squabble'
p1040
I7
sS'finally-finally-encircle'
p1041
I1
sS'power'
p1042
I123
sS'intimate'
p1043
I6
sS'ration'
p1044
I11
sS'poise'
p1045
I11
sS'clopped-clopped'
p1046
I1
sS'teammate'
p1047
I1
sS'stone'
p1048
I6
sS'readmit'
p1049
I1
sS'ace'
p1050
I24
sS'package'
p1051
I12
sS'mediate'
p1052
I10
sS'refold'
p1053
I11
sS'neighbor'
p1054
I1
sS'act'
p1055
I1027
sS'luck'
p1056
I16
sS'individualize'
p1057
I1
sS'invert'
p1058
I4
sS'stony'
p1059
I1
sS'tap-danced'
p1060
I1
sS'impregnate'
p1061
I3
sS'image'
p1062
I6
sS'inculcate'
p1063
I3
sS'bodycheck'
p1064
I1
sS'apologize'
p1065
I330
sS'pivot'
p1066
I180
sS'bubbly'
p1067
I1
sS'hew'
p1068
I12
sS'gleam'
p1069
I232
sS'glean'
p1070
I22
sS'hey'
p1071
I1
sS'hed'
p1072
I9
sS'stickhandle'
p1073
I2
sS'co-evolved'
p1074
I1
sS'hel'
p1075
I1
sS'hem'
p1076
I6
sS'pinwheel'
p1077
I5
sS'bubble'
p1078
I127
sS're-pass'
p1079
I1
sS'complete'
p1080
I1040
sS'outcrop'
p1081
I1
sS'defrost'
p1082
I6
sS'tought'
p1083
I1
sS'mourne'
p1084
I1
sS'body-slammed'
p1085
I2
sS'pre-arm'
p1086
I1
sS'tornado/jables/joey'
p1087
I1
sS'whinny'
p1088
I57
sS'feather-light'
p1089
I1
sS'amplify'
p1090
I37
sS'decdy'
p1091
I1
sS'pull'
p1092
I23827
sS'rush'
p1093
I3328
sS'darken'
p1094
I134
sS'rage'
p1095
I194
sS'pule'
p1096
I10
sS'studio-hopped'
p1097
I1
sS'double-teamed'
p1098
I7
sS'flirt'
p1099
I105
sS'impute'
p1100
I1
sS'dirty'
p1101
I4
sS'reprimand'
p1102
I16
sS'one-handed'
p1103
I1
sS'agree'
p1104
I1422
sS'walkd'
p1105
I1
sS'naturalize'
p1106
I1
sS'gong'
p1107
I1
sS'ag'
p1108
I1
sS'migrate'
p1109
I38
sS'ah'
p1110
I1
sS'impugn'
p1111
I2
sS'ar'
p1112
I1
sS'at'
p1113
I1
sS'aw'
p1114
I1
sS'cathedral'
p1115
I1
sS'ay'
p1116
I1
sS'creak'
p1117
I498
sS'tremble'
p1118
I759
sS'veracruz'
p1119
I1
sS'slobber'
p1120
I6
sS'cream'
p1121
I5
sS'snag-free'
p1122
I1
sS'collector'
p1123
I1
sS'are/were'
p1124
I1
sS'googe'
p1125
I1
sS'soliloquize'
p1126
I1
sS'overwrite'
p1127
I1
sS'friggin'
p1128
I1
sS'standardize'
p1129
I5
sS'annex'
p1130
I13
sS'slant'
p1131
I50
sS're-introduce'
p1132
I2
sS'snitch'
p1133
I1
sS'resell'
p1134
I6
sS'neuter'
p1135
I1
sS'groom'
p1136
I19
sS'mask'
p1137
I54
sS'mash'
p1138
I40
sS'mimic'
p1139
I121
sS'mass'
p1140
I17
sS're-inflate'
p1141
I2
sS'retch'
p1142
I49
sS'metastasize'
p1143
I1
sS'curate'
p1144
I1
sS'consider'
p1145
I1176
sS'outchant'
p1146
I1
sS'beware'
p1147
I7
sS'neigh'
p1148
I27
sS'importune'
p1149
I1
sS'out-rebounded'
p1150
I2
sS'unclog'
p1151
I1
sS'cheney'
p1152
I1
sS'spirit'
p1153
I6
sS'smill'
p1154
I1
sS'tail'
p1155
I36
sS'up-faked'
p1156
I1
sS'co-signed'
p1157
I1
sS'smile'
p1158
I8758
sS'unmangle'
p1159
I1
sS'blockade'
p1160
I7
sS'condition'
p1161
I3
sS'firebomb'
p1162
I2
sS'cable'
p1163
I2
sS'recommit'
p1164
I2
sS'laud'
p1165
I19
sS'sand'
p1166
I7
sS'sane'
p1167
I2
sS'harry'
p1168
I4
sS'dodger'
p1169
I1
sS'son-of-a-bitch'
p1170
I1
sS'reemerge'
p1171
I29
sS're-register'
p1172
I2
sS'thekitchen'
p1173
I1
sS'tongue-lash'
p1174
I1
sS'disconnect'
p1175
I65
sS'burnish'
p1176
I3
sS'probablysaid'
p1177
I1
sS'pass'
p1178
I6118
sS'canvass'
p1179
I6
sS'recalculate'
p1180
I3
sS'destitute'
p1181
I1
sS'quicken'
p1182
I253
sS'shockwave'
p1183
I1
sS'clock'
p1184
I50
sS'forestall'
p1185
I7
sS'section'
p1186
I2
sS'resume'
p1187
I689
sS'nurse'
p1188
I74
sS'perforate'
p1189
I2
sS'contrast'
p1190
I32
sS'hash'
p1191
I13
sS'crowdsurf'
p1192
I1
sS'empower'
p1193
I11
sS'dramatise'
p1194
I1
sS'righty'
p1195
I1
sS'hast'
p1196
I4
sS'u201cget'
p1197
I1
sS'razz'
p1198
I1
sS'quelch'
p1199
I1
sS'schuss'
p1200
I1
sS'air-trace'
p1201
I1
sS're-invent'
p1202
I1
sS'experience'
p1203
I360
sS'off-loaded'
p1204
I2
sS'skyrocket'
p1205
I26
sS'pick'
p1206
I8087
sS'raze'
p1207
I7
sS'smuggle'
p1208
I19
sS'reort'
p1209
I1
sS'outbattle'
p1210
I2
sS'depart'
p1211
I342
sS'plink'
p1212
I5
sS'vid'
p1213
I1
sS'vie'
p1214
I23
sS'hinckleyshow'
p1215
I1
sS'cross-referenced'
p1216
I1
sS'gosh'
p1217
I1
sS'select'
p1218
I344
sS'be-in'
p1219
I1
sS'enliven'
p1220
I3
sS'open-just'
p1221
I1
sS'dozier'
p1222
I1
sS'pearl'
p1223
I1
sS'automate'
p1224
I2
sS'blaze'
p1225
I168
sS'kahne'
p1226
I1
sS'teem'
p1227
I8
sS're-immerge'
p1228
I1
sS'depersonalize'
p1229
I1
sS'spoon-fed'
p1230
I1
sS're-steer'
p1231
I1
sS'doon'
p1232
I1
sS'doom'
p1233
I16
sS'unhinge'
p1234
I7
sS'decied'
p1235
I1
sS'fleece'
p1236
I1
sS'outdraw'
p1237
I1
sS'chisel'
p1238
I49
sS'galeren'
p1239
I1
sS'uncrumple'
p1240
I1
sS'sent'
p1241
I1
sS'morgan'
p1242
I1
sS'learn'
p1243
I2436
sS'grope'
p1244
I128
sS'scramble'
p1245
I1300
sS'ledein'
p1246
I1
sS'prompt'
p1247
I243
sS'planeed'
p1248
I1
sS'gallop'
p1249
I156
sS'saffi'
p1250
I1
sS'bogy'
p1251
I2
sS'scab'
p1252
I3
sS'buiy'
p1253
I1
sS'accept'
p1254
I1293
sS'buid'
p1255
I1
sS'shush'
p1256
I77
sS'sense'
p1257
I1060
sS'station'
p1258
I28
sS'scar'
p1259
I34
sS'dress'
p1260
I540
sS'condemn'
p1261
I67
sS'teleport'
p1262
I38
sS'dazzle'
p1263
I27
sS'interconnect'
p1264
I1
sS'disinvit'
p1265
I2
sS'road-dust-enshroud'
p1266
I1
sS'enlarge'
p1267
I34
sS'cling'
p1268
I544
sS'clink'
p1269
I31
sS'plant'
p1270
I558
sS'anoint'
p1271
I15
sS'attune'
p1272
I1
sS'sympathize'
p1273
I25
sS'soundtrack'
p1274
I1
sS'plane'
p1275
I2
sS'waver'
p1276
I193
sS'flutter'
p1277
I501
sS'refuse'
p1278
I2227
sS'knoow'
p1279
I1
sS'jiang'
p1280
I1
sS'resemble'
p1281
I412
sS'scruffle'
p1282
I1
sS'register'
p1283
I377
sS'pucker'
p1284
I47
sS'denude'
p1285
I4
sS'f-ing'
p1286
I1
sS'wrench'
p1287
I292
sS'double-knot'
p1288
I2
sS'ith'
p1289
I1
sS'pant'
p1290
I207
sS'slam-dunked'
p1291
I2
sS're-blacken'
p1292
I1
sS'televise'
p1293
I6
sS'trade'
p1294
I489
sS'he?d'
p1295
I1
sS'dawdle'
p1296
I22
sS'pang'
p1297
I2
sS'boylan'
p1298
I1
sS'brim'
p1299
I19
sS'turbocharge'
p1300
I2
sS'pronto'
p1301
I1
sS'spray-painted'
p1302
I3
sS'half-sob'
p1303
I1
sS'bypass'
p1304
I91
sS'opryland'
p1305
I1
sS'ally'
p1306
I22
sS'ill-served'
p1307
I1
sS'gut-punch'
p1308
I1
sS'propose'
p1309
I310
sS'battle-hone'
p1310
I1
sS'outmaneuver'
p1311
I6
sS'veggie'
p1312
I1
sS'consign'
p1313
I1
sS'sshhhhh'
p1314
I1
sS'snowball'
p1315
I13
sS'imperil'
p1316
I2
sS'refasten'
p1317
I8
sS'skipper'
p1318
I1
sS're-anchored'
p1319
I1
sS'misuse'
p1320
I4
sS'speculate'
p1321
I70
sS'grav-net'
p1322
I1
sS'nbsptrapp'
p1323
I1
sS'reemphasize'
p1324
I1
sS'upsetter'
p1325
I1
sS'self-insured'
p1326
I1
sS'wererapid'
p1327
I1
sS'everytime'
p1328
I3
sS'troubleshoot'
p1329
I2
sS'loosely'
p1330
I1
sS'swimsuit'
p1331
I1
sS'aabte'
p1332
I1
sS'knight'
p1333
I1
sS'found'
p1334
I263
sS'disapparate'
p1335
I1
sS'u2019'
p1336
I1
sS'traiven'
p1337
I1
sS'eyelash'
p1338
I1
sS'reduce'
p1339
I315
sS'realli'
p1340
I1
sS'reallt'
p1341
I1
sS'bluer'
p1342
I1
sS'scribe'
p1343
I1
sS'humanize'
p1344
I3
sS'terrify'
p1345
I79
sS'reassurr'
p1346
I1
sS'belly-crawl'
p1347
I1
sS'co-coach'
p1348
I1
sS'research'
p1349
I29
sS'applaud'
p1350
I188
sS'stiff-arm'
p1351
I2
sS'salute'
p1352
I150
sS'unbuckle'
p1353
I144
sS'disfigure'
p1354
I7
sS'dilly-dallied'
p1355
I1
sS'theplate'
p1356
I1
sS'qualify'
p1357
I191
sS'murmur'
p1358
I494
sS'mobilize'
p1359
I24
sS'lambast'
p1360
I16
sS'reproach'
p1361
I4
sS'nightspot'
p1362
I1
sS'rearend'
p1363
I1
sS'sicken'
p1364
I27
sS'w'
p1365
I7
sS'castle'
p1366
I1
sS'clump'
p1367
I8
sS'porpoise'
p1368
I2
sS'quick-step'
p1369
I1
sS'major'
p1370
I76
sS'roller-blade'
p1371
I1
sS'wilder'
p1372
I3
sS'undecorate'
p1373
I1
sS'number'
p1374
I37
sS'sequester'
p1375
I12
sS'glitter'
p1376
I127
sS'guess'
p1377
I1156
sS'leverage'
p1378
I7
sS'jet'
p1379
I41
sS'outkick'
p1380
I1
sS'tate'
p1381
I3
sS'swipe'
p1382
I375
sS'droptothe'
p1383
I1
sS'nomo'
p1384
I1
sS'jed'
p1385
I1
sS'atempt'
p1386
I1
sS'aver'
p1387
I1
sS'custardy'
p1388
I1
sS'unbolt'
p1389
I12
sS'jen'
p1390
I1
sS'swipp'
p1391
I1
sS'gnash'
p1392
I24
sS'mmmm'
p1393
I1
sS'chomp'
p1394
I37
sS'consult'
p1395
I72
sS'stifle'
p1396
I277
sS'grace'
p1397
I71
sS'rememberd'
p1398
I1
sS'de-emphasized'
p1399
I1
sS'aah'
p1400
I6
sS'video'
p1401
I1
sS're-learn'
p1402
I2
sS'graffity'
p1403
I1
sS'defect'
p1404
I28
sS'waft'
p1405
I117
sS'rolled/carried'
p1406
I1
sS'rise-in'
p1407
I1
sS'caress'
p1408
I559
sS'sport'
p1409
I120
sS'half-open'
p1410
I1
sS'sell'
p1411
I1672
sS'shelearn'
p1412
I1
sS'out-muscled'
p1413
I1
sS'tarnish'
p1414
I15
sS'jeopardize'
p1415
I12
sS'trowel'
p1416
I1
sS'jostle'
p1417
I100
sS'tip-toed'
p1418
I1
sS'brace'
p1419
I635
sS'play'
p1420
I7547
sS'hurtle'
p1421
I123
sS'puree'
p1422
I5
sS'yawn'
p1423
I265
sS'plan'
p1424
I881
sS'mythologize'
p1425
I1
sS'dry-heave'
p1426
I4
sS'seize'
p1427
I700
sS'covet'
p1428
I13
sS'cover'
p1429
I3504
sS'institutionalize'
p1430
I3
sS'self-financed'
p1431
I1
sS'barrel'
p1432
I155
sS'reheat'
p1433
I6
sS'despise'
p1434
I75
sS'golf'
p1435
I11
sS'ovulate'
p1436
I3
sS'agonize'
p1437
I29
sS'affix'
p1438
I42
sS'lengthwise'
p1439
I1
sS'intruduce'
p1440
I1
sS'session'
p1441
I1
sS'paddle'
p1442
I151
sS'impact'
p1443
I56
sS'go/half'
p1444
I1
sS'clothesline'
p1445
I7
sS'factor'
p1446
I4
sS'scuff'
p1447
I23
sS'feekae'
p1448
I1
sS'resent'
p1449
I90
sS'remedy'
p1450
I23
sS'exempt'
p1451
I6
sS'resend'
p1452
I1
sS'sleeve'
p1453
I3
sS'cry'
p1454
I3677
sS'proclaim'
p1455
I95
sS'clop'
p1456
I6
sS'obscure'
p1457
I97
sS'uncloak'
p1458
I1
sS'rivet'
p1459
I23
sS'roundhouse'
p1460
I2
sS'sew'
p1461
I51
sS're-qualified'
p1462
I1
sS'set'
p1463
I5874
sS'unpick'
p1464
I1
sS'overwhelm'
p1465
I253
sS'jade'
p1466
I1
sS'nibble'
p1467
I292
sS'sex'
p1468
I2
sS'see'
p1469
I38220
sS'ad-libbed'
p1470
I1
sS'backfire'
p1471
I67
sS're-punk'
p1472
I1
sS'contour'
p1473
I2
sS'project'
p1474
I112
sS'deactivate'
p1475
I21
sS'outpunt'
p1476
I1
sS'crossword'
p1477
I2
sS'cross-enroll'
p1478
I1
sS'compliment'
p1479
I89
sS'tristan'
p1480
I4
sS'multi-task'
p1481
I1
sS's'
p1482
I10
sS'loiter'
p1483
I20
sS'suvan'
p1484
I1
sS'disallow'
p1485
I19
sS'samba'
p1486
I1
sS'half-volleyed'
p1487
I1
sS'interface'
p1488
I4
sS'lass'
p1489
I1
sS'last'
p1490
I927
sS'sistergrew'
p1491
I1
sS'forsyth'
p1492
I1
sS'lash'
p1493
I405
sS'approve'
p1494
I260
sS'load'
p1495
I756
sS'loaf'
p1496
I2
sS'electrician'
p1497
I1
sS'grduate'
p1498
I1
sS'bell'
p1499
I1
sS'loan'
p1500
I38
sS'hollow'
p1501
I7
sS'olly'
p1502
I1
sS'scallop'
p1503
I2
sS'carriend'
p1504
I1
sS'pinch-hitter'
p1505
I2
sS'belt'
p1506
I114
sS'seep'
p1507
I325
sS'treke'
p1508
I1
sS'imbed'
p1509
I9
sS'rattle'
p1510
I491
sS'firm'
p1511
I18
sS'champion'
p1512
I44
sS'fire'
p1513
I2915
sS'infect'
p1514
I30
sS'incinerate'
p1515
I11
sS'mine'
p1516
I48
sS'fund'
p1517
I57
sS'engage'
p1518
I332
sS'awake'
p1519
I661
sS'deport'
p1520
I24
sS'straight'
p1521
I3
sS'broten'
p1522
I1
sS'admire'
p1523
I547
sS'tried-and'
p1524
I1
sS'harrumph'
p1525
I11
sS'pound'
p1526
I836
sS'un-strap'
p1527
I1
sS'owen'
p1528
I1
sS'comport'
p1529
I3
sS're-tie'
p1530
I3
sS'caramelize'
p1531
I2
sS'vow'
p1532
I318
sS'enlace'
p1533
I2
sS're-grass'
p1534
I1
sS'vanish'
p1535
I634
sS'frown'
p1536
I1074
sS'decoy'
p1537
I1
sS'shorten'
p1538
I39
sS'mascarae'
p1539
I1
sS'commune'
p1540
I7
sS'teeter'
p1541
I86
sS'alert'
p1542
I200
sS'walmart'
p1543
I6
sS'uncoil'
p1544
I28
sS'titlist'
p1545
I1
sS'nickname'
p1546
I6
sS'stack'
p1547
I528
sS'expend'
p1548
I12
sS'shehop'
p1549
I1
sS'reinterview'
p1550
I1
sS'wideout'
p1551
I1
sS'rounge'
p1552
I1
sS'clime'
p1553
I2
sS'comprise'
p1554
I17
sS'backed-out'
p1555
I1
sS'self-publish'
p1556
I1
sS'emblazon'
p1557
I8
sS'fluoresce'
p1558
I1
sS'salve'
p1559
I5
sS'un-train'
p1560
I1
sS'stunt'
p1561
I2
sS'deep-sixed'
p1562
I1
sS'sidelage'
p1563
I1
sS'unto'
p1564
I4
sS're-break'
p1565
I1
sS'amputee'
p1566
I1
sS'chest'
p1567
I7
sS'eager'
p1568
I1
sS'input'
p1569
I1
sS'cordon'
p1570
I15
sS'format'
p1571
I1
sS'couple'
p1572
I8
sS'hurrahe'
p1573
I1
sS'intuit'
p1574
I7
sS'tambay'
p1575
I1
sS'quest'
p1576
I3
sS'test-marketed'
p1577
I1
sS'abound'
p1578
I28
sS'falcon'
p1579
I2
sS'abduct'
p1580
I7
sS'ivar'
p1581
I1
sS'd'
p1582
I1
sS'niinimaa'
p1583
I1
sS'chorus'
p1584
I1
sS'continue'
p1585
I7770
sS'rekick'
p1586
I1
sS'crescendo'
p1587
I2
sS'gargle'
p1588
I15
sS'spring'
p1589
I916
sS'bounce'
p1590
I1594
sS'palm'
p1591
I128
sS'pall'
p1592
I1
sS'sight'
p1593
I43
sS'bagio'
p1594
I1
sS'sprint'
p1595
I739
sS'pale'
p1596
I114
sS'untangle'
p1597
I54
sS'twinkle'
p1598
I101
sS'eand'
p1599
I19
sS'air-balled'
p1600
I1
sS'behave'
p1601
I141
sS'out-hustled'
p1602
I2
sS'ptot'
p1603
I1
sS'recogniy'
p1604
I1
sS'hextall'
p1605
I1
sS'be'
p1606
I291384
sS'four-putted'
p1607
I3
sS'low-balled'
p1608
I1
sS'self-park'
p1609
I1
sS'nowhere'
p1610
I1
sS'accustom'
p1611
I8
sS'carom'
p1612
I7
sS'air-drop'
p1613
I1
sS'errrr'
p1614
I1
sS'plaist'
p1615
I1
sS'zip'
p1616
I297
sS'coexist'
p1617
I8
sS'ambush'
p1618
I39
sS'frizzle'
p1619
I2
sS'whisper-shout'
p1620
I1
sS'repair'
p1621
I131
sS'scuba-dive'
p1622
I1
sS'into'
p1623
I1
sS'recreate'
p1624
I20
sS'dame'
p1625
I1
sS'appropriate'
p1626
I22
sS'hillcrest'
p1627
I1
sS'katie'
p1628
I1
sS'openn'
p1629
I2
sS'span'
p1630
I86
sS'spam'
p1631
I1
sS'opend'
p1632
I2
sS'sock'
p1633
I22
sS'submit'
p1634
I153
sS'occupy'
p1635
I271
sS'lithe'
p1636
I1
sS'mishandle'
p1637
I23
sS'suit'
p1638
I127
sS'spar'
p1639
I40
sS'half-rise'
p1640
I1
sS'perplex'
p1641
I8
sS'tally'
p1642
I47
sS'slump'
p1643
I695
sS'manipulate'
p1644
I73
sS'link'
p1645
I142
sS'line'
p1646
I1187
sS'excpet'
p1647
I1
sS'harangue'
p1648
I9
sS'karro'
p1649
I1
sS'up'
p1650
I34
sS'um'
p1651
I1
sS'unstraddle'
p1652
I1
sS'slander'
p1653
I1
sS'dropkick'
p1654
I5
sS'mature'
p1655
I18
sS'scotchgard'
p1656
I1
sS'uc'
p1657
I1
sS'reconcile'
p1658
I28
sS'pencil'
p1659
I3
sS'influence'
p1660
I62
sS'haunt'
p1661
I92
sS'char'
p1662
I26
sS'chap'
p1663
I8
sS'chat'
p1664
I596
sS'pickleweed'
p1665
I1
sS'copulate'
p1666
I1
sS'retrace'
p1667
I88
sS'scrape'
p1668
I465
sS'mistime'
p1669
I8
sS'retract'
p1670
I126
sS'deviate'
p1671
I16
sS'them-be'
p1672
I1
sS'scapegoat'
p1673
I1
sS'scrub'
p1674
I173
sS're-cast'
p1675
I1
sS'besiege'
p1676
I8
sS'oblige'
p1677
I121
sS'scrum'
p1678
I1
sS'katelyn'
p1679
I1
sS'reassume'
p1680
I1
sS'land'
p1681
I3916
sS'over-whelm'
p1682
I1
sS'expressionless'
p1683
I3
sS'overtop'
p1684
I1
sS'age'
p1685
I10
sS'crease'
p1686
I48
sS'feud'
p1687
I1
sS'hella'
p1688
I2
sS'crinkle'
p1689
I34
sS'menace'
p1690
I3
sS'first-guessed'
p1691
I1
sS'wiegh'
p1692
I1
sS'code'
p1693
I3
sS'piddle'
p1694
I3
sS'scratch'
p1695
I493
sS'broaden'
p1696
I30
sS'soften'
p1697
I212
sS'toggle'
p1698
I18
sS'gossip'
p1699
I18
sS'flashback'
p1700
I1
sS'moon'
p1701
I4
sS'pul'
p1702
I22
sS'encrust'
p1703
I14
sS'backlight'
p1704
I1
sS'shrivilve'
p1705
I1
sS'send'
p1706
I4768
sS'dislike'
p1707
I77
sS'resheathe'
p1708
I1
sS'kaput'
p1709
I1
sS'unzip'
p1710
I259
sS'garden'
p1711
I4
sS'torture'
p1712
I170
sS'wipp'
p1713
I1
sS'double-checked'
p1714
I2
sS'gardez'
p1715
I1
sS'msged'
p1716
I1
sS'libby'
p1717
I1
sS'wipe'
p1718
I1775
sS'russianeat'
p1719
I1
sS'harbor'
p1720
I46
sS'marry'
p1721
I1173
sS'tre'
p1722
I2
sS'try'
p1723
I15307
sS'race'
p1724
I1861
sS'tru'
p1725
I1
sS'rack'
p1726
I125
sS'stair-step'
p1727
I1
sS'soft-focus'
p1728
I1
sS'realsy'
p1729
I1
sS'pledge'
p1730
I110
sS'fake-read'
p1731
I1
sS'imply'
p1732
I57
sS'croon'
p1733
I25
sS'fowollow'
p1734
I1
sS'wasn?t'
p1735
I1
sS'tape-record'
p1736
I3
sS'twine'
p1737
I46
sS'reforest'
p1738
I1
sS'proffer'
p1739
I8
sS'rd.'
p1740
I1
sS'bird'
p1741
I1
sS'pre-order'
p1742
I2
sS'blowdry'
p1743
I1
sS'lea'
p1744
I3
sS'inspect'
p1745
I369
sS'used-way'
p1746
I1
sS'leg'
p1747
I20
sS'leh'
p1748
I1
sS'lei'
p1749
I1
sS'punch'
p1750
I1249
sS'let'
p1751
I10068
sS're-appointed'
p1752
I1
sS'revile'
p1753
I5
sS'receive'
p1754
I2519
sS'screech'
p1755
I384
sS'journeyman'
p1756
I1
sS'wouldnever'
p1757
I1
sS'dyan'
p1758
I1
sS'ment'
p1759
I1
sS'survey'
p1760
I376
sS'mountain-biked'
p1761
I1
sS'defeat'
p1762
I371
sS'excercise'
p1763
I3
sS'rive'
p1764
I1
sS'countervail'
p1765
I1
sS'sire'
p1766
I4
sS'disobey'
p1767
I13
sS'conjour'
p1768
I1
sS'extricate'
p1769
I52
sS'super-imagine'
p1770
I1
sS'extirpate'
p1771
I1
sS'mortify'
p1772
I9
sS'inconveniently'
p1773
I1
sS'standing'
p1774
I1
sS'switchyard'
p1775
I1
sS'vocalize'
p1776
I3
sS'lube'
p1777
I6
sS'zig'
p1778
I8
sS'duplicate'
p1779
I46
sS'doubt'
p1780
I315
sS'half-listen'
p1781
I13
sS'overcut'
p1782
I1
sS'pressurize'
p1783
I2
sS'babe'
p1784
I2
sS'rehydrate'
p1785
I1
sS'unplug'
p1786
I38
sS're-located'
p1787
I1
sS'deregulate'
p1788
I3
sS'baby'
p1789
I3
sS'ok'
p1790
I16
sS'entangle'
p1791
I5
sS'pout'
p1792
I66
sS'challenge'
p1793
I389
sS'pour'
p1794
I2352
sS'reproduce'
p1795
I25
sS'larch'
p1796
I1
sS'sabi'
p1797
I1
sS'retell'
p1798
I13
sS'thin'
p1799
I66
sS'drill'
p1800
I62
sS'shook'
p1801
I1
sS'fulfill'
p1802
I53
sS'pouf'
p1803
I1
sS'scatter'
p1804
I100
sS'wedge'
p1805
I143
sS'tantrume'
p1806
I1
sS'pawn'
p1807
I10
sS'process'
p1808
I127
sS'lock'
p1809
I935
sS'slit'
p1810
I86
sS'bend'
p1811
I238
sS'slip'
p1812
I4791
sS'blvd'
p1813
I1
sS'trombon'
p1814
I1
sS'trumpet'
p1815
I43
sS'weaken'
p1816
I187
sS'chop'
p1817
I140
sS'portage'
p1818
I1
sS'teared-up'
p1819
I1
sS'freeze-frame'
p1820
I2
sS'delay'
p1821
I137
sS're-adjust'
p1822
I4
sS'belly-laugh'
p1823
I1
sS'opine'
p1824
I5
sS'stow'
p1825
I80
sS'dosey-doe'
p1826
I1
sS'await'
p1827
I292
sS'doze'
p1828
I147
sS'seaworld'
p1829
I1
sS'tier'
p1830
I1
sS'jumpstart'
p1831
I3
sS'hawk'
p1832
I26
sS'autograph'
p1833
I27
sS'pocket'
p1834
I105
sS'fossilise'
p1835
I1
sS'rearrest'
p1836
I1
sS'counter'
p1837
I269
sS'lundgren'
p1838
I1
sS'writ'
p1839
I1
sS'allot'
p1840
I5
sS'allow'
p1841
I3384
sS'lactate'
p1842
I2
sS'understate'
p1843
I4
sS'mute'
p1844
I19
sS'move'
p1845
I17190
sS'mutt'
p1846
I1
sS'presented-a'
p1847
I1
sS'perfect'
p1848
I8
sS'double-teammed'
p1849
I1
sS'goanywhere'
p1850
I1
sS'decay'
p1851
I3
sS'hypothesize'
p1852
I4
sS'dispose'
p1853
I40
sS'equalise'
p1854
I11
sS'decap'
p1855
I1
sS'interlink'
p1856
I3
sS'shudder'
p1857
I851
sS'barrichello'
p1858
I1
sS'dr.aped'
p1859
I1
sS'cusp'
p1860
I1
sS'prosper'
p1861
I13
sS'knick'
p1862
I1
sS'hurrican'
p1863
I1
sS'belch'
p1864
I40
sS'bat'
p1865
I340
sS'launder'
p1866
I11
sS'dock'
p1867
I128
sS'snake'
p1868
I231
sS'kiss'
p1869
I4276
sS'self-ignited'
p1870
I1
sS'stabilise'
p1871
I4
sS'garner'
p1872
I42
sS'cage'
p1873
I15
sS'realize'
p1874
I5295
sS'eander'
p1875
I1
sS'thoguht'
p1876
I1
sS'eben'
p1877
I1
sS'assumed-the'
p1878
I1
sS'merge'
p1879
I195
sS'hanger'
p1880
I1
sS'merga'
p1881
I1
sS'effuse'
p1882
I1
sS'prieure'
p1883
I1
sS'scorch'
p1884
I98
sS'first-and-goal'
p1885
I1
sS'hand-shaped'
p1886
I1
sS'bump'
p1887
I518
sS'air-mailed'
p1888
I3
sS'castigate'
p1889
I1
sS'mete'
p1890
I2
sS'breast-fed'
p1891
I1
sS'wander'
p1892
I1002
sS'witness'
p1893
I192
sS'reload'
p1894
I102
sS'pooch-punted'
p1895
I1
sS'venom'
p1896
I1
sS'scaven'
p1897
I1
sS'stare'
p1898
I8217
sS'shut'
p1899
I2472
sS'wallpaper'
p1900
I1
sS'perish'
p1901
I29
sS'keep-away'
p1902
I1
sS'graze'
p1903
I332
sS'tempt'
p1904
I52
sS'thrust'
p1905
I967
sS'embarrass'
p1906
I61
sS'rematerialize'
p1907
I3
sS'overimitate'
p1908
I1
sS'spill'
p1909
I732
sS'could'
p1910
I2
sS'put'
p1911
I13948
sS'stimulate'
p1912
I33
sS'cannonball'
p1913
I2
sS'cobweb'
p1914
I1
sS'scent'
p1915
I10
sS'micro-managed'
p1916
I1
sS'bad-mouth'
p1917
I2
sS'prank'
p1918
I4
sS'maxx'
p1919
I1
sS'bartend'
p1920
I1
sS'crewmen'
p1921
I1
sS'accompany'
p1922
I310
sS'quarry'
p1923
I2
sS'gotcha'
p1924
I1
sS'cannon-ball'
p1925
I1
sS'disengage'
p1926
I52
sS'barnstorm'
p1927
I6
sS'laymen'
p1928
I1
sS'vouch'
p1929
I10
sS'thresh'
p1930
I1
sS'steel'
p1931
I78
sS'dead-end'
p1932
I4
sS'over-rotate'
p1933
I1
sS'breast-feed'
p1934
I3
sS'steed'
p1935
I1
sS'bother'
p1936
I604
sS'disband'
p1937
I12
sS'sugest'
p1938
I1
sS'amble'
p1939
I156
sS'steer'
p1940
I412
sS'hotwire'
p1941
I5
sS'belly-flopped'
p1942
I2
sS'bare-ass'
p1943
I1
sS'weighed-in'
p1944
I1
sS'house-sit'
p1945
I1
sS'andtold'
p1946
I1
sS'gentle'
p1947
I7
sS'over-trained'
p1948
I1
sS'outplay'
p1949
I12
sS'heft'
p1950
I126
sS'lila'
p1951
I1
sS'soak'
p1952
I439
sS'apprise'
p1953
I2
sS'lilt'
p1954
I2
sS'outjump'
p1955
I6
sS'airdrop'
p1956
I1
sS'soap'
p1957
I27
sS'soar'
p1958
I416
sS'worldwide'
p1959
I1
sS'voyage'
p1960
I1
sS'retile'
p1961
I1
sS'cipher'
p1962
I1
sS'medal'
p1963
I3
sS'instil'
p1964
I26
sS'reignite'
p1965
I6
sS'face'
p1966
I3387
sS'unscramble'
p1967
I2
sS'brew'
p1968
I45
sS'videoke'
p1969
I1
sS'overrate'
p1970
I1
sS'terminate'
p1971
I29
sS'bring'
p1972
I7421
sS'brine'
p1973
I1
sS'rough'
p1974
I24
sS'redirect'
p1975
I48
sS'pause'
p1976
I2133
sS'=]'
p1977
I1
sS'jaw'
p1978
I4
sS'transfix'
p1979
I10
sS'jar'
p1980
I76
sS'jam'
p1981
I307
sS'tape'
p1982
I95
sS'jag'
p1983
I3
sS'anneal'
p1984
I1
sS'flinch'
p1985
I652
sS'hope'
p1986
I1570
sS'handle'
p1987
I1940
sS'baby-sat'
p1988
I4
sS'somehoow'
p1989
I1
sS'antagonise'
p1990
I2
sS'wrink'
p1991
I1
sS'wiggle'
p1992
I355
sS're-cock'
p1993
I1
sS'wring'
p1994
I77
sS'smash'
p1995
I848
sS'to-and'
p1996
I1
sS'outhustle'
p1997
I3
sS'summon'
p1998
I328
sS'flatb'
p1999
I2
sS'rappel'
p2000
I2
sS'stuff'
p2001
I633
sS'varify'
p2002
I1
sS'shortchange'
p2003
I1
sS'rein'
p2004
I78
sS'exude'
p2005
I81
sS'withstand'
p2006
I69
sS'btw'
p2007
I1
sS'frame'
p2008
I163
sS'lazy'
p2009
I1
sS'!!!!'
p2010
I4
sS'defenseman'
p2011
I2
sS'invovle'
p2012
I1
sS'polanski'
p2013
I1
sS'airmail'
p2014
I5
sS'menchon'
p2015
I1
sS'polymorph'
p2016
I1
sS'loveeeed'
p2017
I1
sS'wire'
p2018
I24
sS'visualise'
p2019
I3
sS'unravel'
p2020
I129
sS'legitimize'
p2021
I5
sS'piston'
p2022
I8
sS'un-velcroe'
p2023
I1
sS'email'
p2024
I43
sS'browbeat'
p2025
I3
sS'her-she'
p2026
I1
sS'snortle'
p2027
I1
sS'lotion'
p2028
I1
sS'tsk'
p2029
I1
sS'drum'
p2030
I252
sS'force-feed'
p2031
I5
sS'drub'
p2032
I2
sS'ramp'
p2033
I19
sS'drug'
p2034
I21
sS'tlc'
p2035
I1
sS'doorway'
p2036
I1
sS'towel-dry'
p2037
I5
sS'puff'
p2038
I147
sS'itemize'
p2039
I1
sS'ck'
p2040
I10
sS'roughen'
p2041
I6
sS'co'
p2042
I4
sS'cl'
p2043
I1
sS'revamp'
p2044
I21
sS'ce'
p2045
I1
sS'recongize'
p2046
I1
sS'distil'
p2047
I1
sS'indict'
p2048
I12
sS'labor'
p2049
I104
sS'reexamine'
p2050
I5
sS'quaver'
p2051
I8
sS'mismanage'
p2052
I2
sS'divebomb'
p2053
I3
sS'applique'
p2054
I1
sS'horse-traded'
p2055
I1
sS'entitle'
p2056
I6
sS'feather'
p2057
I7
sS'waste'
p2058
I448
sS'yell/meow'
p2059
I1
sS'half-concealed'
p2060
I2
sS'crisscross'
p2061
I51
sS'recoat'
p2062
I1
sS'zig-zagged'
p2063
I1
sS'banish'
p2064
I37
sS'laser'
p2065
I5
sS'tail-tuck'
p2066
I1
sS'intro'
p2067
I1
sS'in-wow'
p2068
I1
sS'ultra'
p2069
I1
sS'maul'
p2070
I14
sS'groin'
p2071
I2
sS'inarch'
p2072
I1
sS'vi'
p2073
I1
sS'site'
p2074
I1
sS'lust'
p2075
I10
sS'incense'
p2076
I2
sS'conserve'
p2077
I36
sS'ransom'
p2078
I1
sS'tattoo'
p2079
I36
sS'dilate'
p2080
I16
sS'romance'
p2081
I3
sS'matthew'
p2082
I1
sS'dam'
p2083
I3
sS'ball'
p2084
I102
sS'balk'
p2085
I122
sS'sadi'
p2086
I1
sS'bale'
p2087
I1
sS'drink'
p2088
I1807
sS'muddle'
p2089
I15
sS'ferriero'
p2090
I1
sS'dust'
p2091
I153
sS'ikea'
p2092
I1
sS'broccoli'
p2093
I1
sS'expand'
p2094
I401
sS'audit'
p2095
I8
sS'off'
p2096
I1
sS'fascinate'
p2097
I49
sS'trudge'
p2098
I247
sS'shotgun'
p2099
I1
sS'colour'
p2100
I5
sS'enrage'
p2101
I50
sS'dinar'
p2102
I1
sS'command'
p2103
I346
sS'camoflage'
p2104
I1
sS'diversify'
p2105
I6
sS'depict'
p2106
I38
sS'sandpaper'
p2107
I1
sS'xed'
p2108
I1
sS'predictd'
p2109
I1
sS'restructure'
p2110
I19
sS'flesh'
p2111
I1
sS'diarrhea'
p2112
I1
sS'monteverdi'
p2113
I1
sS'glue'
p2114
I22
sS're-corked'
p2115
I1
sS'mis-type'
p2116
I1
sS'web'
p2117
I1
sS'miskick'
p2118
I1
sS'wed'
p2119
I8
sS'wen'
p2120
I2
sS'upraise'
p2121
I4
sS'arrest'
p2122
I66
sS'combine'
p2123
I156
sS'crack'
p2124
I823
sS'gaudenzi'
p2125
I1
sS'practise'
p2126
I13
sS'ijit'
p2127
I1
sS'magnify'
p2128
I32
sS'spiezio'
p2129
I1
sS'burble'
p2130
I17
sS'criminalize'
p2131
I2
sS'unbalance'
p2132
I1
sS'supervise'
p2133
I56
sS'atrophy'
p2134
I1
sS'tick'
p2135
I117
sS'pier'
p2136
I1
sS'republish'
p2137
I1
sS'crisp'
p2138
I3
sS'finnish'
p2139
I1
sS'bulge'
p2140
I163
sS'olowokandi'
p2141
I1
sS'garage'
p2142
I1
sS'stagger'
p2143
I883
sS'imprison'
p2144
I17
sS'become'
p2145
I9737
sS'sprain'
p2146
I37
sS'urllink'
p2147
I7
sS'sully'
p2148
I10
sS'bullete'
p2149
I1
sS'fantasise'
p2150
I1
sS'daylight'
p2151
I4
sS'flush'
p2152
I314
sS'thier'
p2153
I1
sS'transport'
p2154
I88
sS'pre-prepared'
p2155
I1
sS'seem-ah'
p2156
I1
sS'unbend'
p2157
I3
sS'colonize'
p2158
I7
sS'avoid'
p2159
I1806
sS'safeway'
p2160
I1
sS'castrate'
p2161
I5
sS'pilfer'
p2162
I9
sS'leading-by-example'
p2163
I1
sS'schedule'
p2164
I68
sS'reapproach'
p2165
I1
sS'pressure'
p2166
I72
sS'belay'
p2167
I3
sS'stage'
p2168
I195
sS'rag-doll'
p2169
I1
sS'cameback'
p2170
I1
sS'overreach'
p2171
I7
sS'ingest'
p2172
I16
sS'idolize'
p2173
I22
sS'kri'
p2174
I1
sS'revise'
p2175
I41
sS'rectify'
p2176
I16
sS'pussy'
p2177
I2
sS'assess'
p2178
I140
sS'muck'
p2179
I5
sS're-roll'
p2180
I1
sS'reactivate'
p2181
I10
sS'walpole'
p2182
I1
sS'rezz'
p2183
I1
sS'overestimate'
p2184
I7
sS'jump-start'
p2185
I7
sS'dive-bomb'
p2186
I4
sS'trigger'
p2187
I220
sS'spote'
p2188
I1
sS'function'
p2189
I60
sS'funnel'
p2190
I70
sS'frisk'
p2191
I15
sS're-thought'
p2192
I1
sS'dabble'
p2193
I42
sS'adalyn'
p2194
I1
sS'grate'
p2195
I48
sS'count'
p2196
I640
sS'\xc2\xa7'
p2197
I1
sS'compute'
p2198
I8
sS'\xc2\xa1'
p2199
I1
sS'escourt'
p2200
I1
sS'smooth'
p2201
I406
sS'\xc2\xa9'
p2202
I1
sS'\xc2\xb4'
p2203
I29
sS'vaporise'
p2204
I1
sS'workedg'
p2205
I1
sS'freewheel'
p2206
I1
sS'monument'
p2207
I1
sS'come-you'
p2208
I1
sS'appraise'
p2209
I25
sS'kowtow'
p2210
I1
sS'khale'
p2211
I2
sS'recognize'
p2212
I1784
sS'contribute'
p2213
I292
sS'denote'
p2214
I12
sS'ink'
p2215
I11
sS'inf'
p2216
I2
sS'engorge'
p2217
I5
sS'me-but'
p2218
I1
sS'flummox'
p2219
I9
sS'goalkeeper'
p2220
I1
sS'stockpile'
p2221
I7
sS'behold'
p2222
I67
sS'vulgarize'
p2223
I1
sS'ponytail'
p2224
I2
sS'rez'
p2225
I1
sS'repeat'
p2226
I731
sS'dismantle'
p2227
I38
sS'sieze'
p2228
I3
sS'chance'
p2229
I79
sS're-organize'
p2230
I3
sS'pacify'
p2231
I15
sS'repeal'
p2232
I7
sS'mastermind'
p2233
I1
sS'ghost'
p2234
I8
sS'squinch'
p2235
I2
sS'disgruntle'
p2236
I1
sS'rule'
p2237
I447
sS'compete'
p2238
I288
sS'pension'
p2239
I1
sS'abhor'
p2240
I15
sS'buoy'
p2241
I43
sS'copy'
p2242
I105
sS'untruss'
p2243
I1
sS'field-tests'
p2244
I1
sS'fanfiction.net'
p2245
I1
sS'reechoe'
p2246
I1
sS'short-change'
p2247
I1
sS'rekindle'
p2248
I23
sS'defraud'
p2249
I7
sS'spew'
p2250
I100
sS'leeward'
p2251
I2
sS'recross'
p2252
I4
sS'bludgeon'
p2253
I18
sS'tickle'
p2254
I274
sS'bike'
p2255
I16
sS'man-handle'
p2256
I1
sS'daze'
p2257
I7
sS'ahh-ed'
p2258
I1
sS'dapple'
p2259
I7
sS'restock'
p2260
I14
sS'whack'
p2261
I166
sS'eire'
p2262
I3
sS'tarry'
p2263
I9
sS'blanket'
p2264
I57
sS'distort'
p2265
I16
sS'noumanoui'
p2266
I1
sS'begrudge'
p2267
I9
sS'slather'
p2268
I30
sS'chapel'
p2269
I1
sS'loooooooove'
p2270
I1
sS'whisk'
p2271
I103
sS'whish'
p2272
I1
sS'exaggerate'
p2273
I23
sS'respell'
p2274
I1
sS'pinch'
p2275
I295
sS'hand-write'
p2276
I1
sS'upload'
p2277
I28
sS'nigger'
p2278
I1
sS'bequeath'
p2279
I15
sS'delegate'
p2280
I12
sS'generalize'
p2281
I1
sS'reinvent'
p2282
I38
sS'work-that'
p2283
I2
sS'triumph'
p2284
I21
sS'chew'
p2285
I427
sS'symbolyze'
p2286
I1
sS'speck'
p2287
I1
sS'29th'
p2288
I1
sS'hork'
p2289
I1
sS'follow'
p2290
I10302
sS'levitate'
p2291
I42
sS'refreeze'
p2292
I1
sS'deliberate'
p2293
I30
sS'identi\xef\xac\x81ed'
p2294
I1
sS'revolutionize'
p2295
I18
sS'toll'
p2296
I21
sS'unhand'
p2297
I2
sS'crunch'
p2298
I144
sS'pogostick'
p2299
I1
sS'redeploy'
p2300
I4
sS'form-she'
p2301
I1
sS'coddle'
p2302
I6
sS'half-stagger'
p2303
I1
sS'balance'
p2304
I159
sS'daughter'
p2305
I1
sS'study'
p2306
I2142
sS'shud'
p2307
I1
sS'co-invented'
p2308
I1
sS'reappraise'
p2309
I1
sS'verbalise'
p2310
I1
sS'air-taxi'
p2311
I1
sS'smoke'
p2312
I399
sS'bunker'
p2313
I2
sS'haror'
p2314
I1
sS'ake'
p2315
I1
sS'motioned-with'
p2316
I1
sS'bull-whipped'
p2317
I1
sS'secure'
p2318
I425
sS'hospitalsend'
p2319
I1
sS'spooky'
p2320
I1
sS'sponser'
p2321
I1
sS'eyeful'
p2322
I1
sS'nauseate'
p2323
I2
sS'shun'
p2324
I50
sS'blind-folded'
p2325
I1
sS'congratulation'
p2326
I2
sS'glance'
p2327
I5588
sS'total'
p2328
I100
sS'pleasure-however'
p2329
I1
sS'sarah'
p2330
I1
sS'plot'
p2331
I68
sS'plow'
p2332
I167
sS'plop'
p2333
I250
sS'gloss'
p2334
I61
sS'insult'
p2335
I40
sS'plod'
p2336
I45
sS'crawl-slide'
p2337
I1
sS'tryin'
p2338
I1
sS'vegetate'
p2339
I2
sS'reevaluate'
p2340
I4
sS'dominus'
p2341
I1
sS'sauvignon'
p2342
I1
sS'whip-lash'
p2343
I1
sS'haha'
p2344
I1
sS'reign'
p2345
I82
sS'speed-load'
p2346
I1
sS'stoppp'
p2347
I1
sS'eress'
p2348
I38
sS'uhhr-ed'
p2349
I1
sS'scribble'
p2350
I135
sS'overrun'
p2351
I24
sS'anddeposit'
p2352
I1
sS'word'
p2353
I2
sS'swirl-and-whirl'
p2354
I1
sS'err'
p2355
I12
sS'player'
p2356
I1
sS'crest'
p2357
I94
sS'work'
p2358
I9731
sS'eclipse'
p2359
I34
sS'grovel'
p2360
I7
sS'cuddly'
p2361
I1
sS'pre-ignite'
p2362
I1
sS'ere'
p2363
I4
sS'cuddle'
p2364
I130
sS'tinder'
p2365
I1
sS'elbow'
p2366
I150
sS'im'
p2367
I1
sS'quiver'
p2368
I233
sS'pollute'
p2369
I5
sS'flunk'
p2370
I26
sS'repot'
p2371
I1
sS'impair'
p2372
I2
sS'aaah'
p2373
I1
sS'exept'
p2374
I1
sS'acrobatic'
p2375
I1
sS'misperceive'
p2376
I2
sS'bloodsh'
p2377
I1
sS'provide'
p2378
I1277
sS'verify'
p2379
I66
sS'photocopy'
p2380
I12
sS'commemerate'
p2381
I1
sS're-aim'
p2382
I1
sS'co-wrote'
p2383
I7
sS'chum'
p2384
I1
sS'sever'
p2385
I121
sS'rewind'
p2386
I30
sS'interview'
p2387
I216
sS'disappoint'
p2388
I87
sS'beach'
p2389
I12
sS'gamble'
p2390
I61
sS'fever'
p2391
I2
sS'spray-paint'
p2392
I1
sS'lag'
p2393
I53
sS'us-right'
p2394
I1
sS'afdzdss'
p2395
I1
sS'lay'
p2396
I6710
sS're-enlist'
p2397
I1
sS'lap'
p2398
I162
sS'scull'
p2399
I1
sS'nbspunch'
p2400
I1
sS'alienate'
p2401
I33
sS'bear-hugged'
p2402
I3
sS'retort'
p2403
I15
sS'greet'
p2404
I1154
sS'scare'
p2405
I348
sS'scarf'
p2406
I23
sS'remonstrate'
p2407
I3
sS'order'
p2408
I2115
sS'modesty'
p2409
I1
sS'vassar'
p2410
I1
sS'wiffle'
p2411
I1
sS'consent'
p2412
I20
sS'reshoot'
p2413
I1
sS'natter'
p2414
I5
sS'self-medicate'
p2415
I1
sS'tinkle'
p2416
I27
sS'strafe'
p2417
I11
sS'bespeak'
p2418
I4
sS'precipitate'
p2419
I12
sS'savour'
p2420
I14
sS'shear'
p2421
I25
sS'theo'
p2422
I2
sS'contaminate'
p2423
I4
sS'fragment'
p2424
I3
sS'collide'
p2425
I345
sS'break'
p2426
I5889
sS'band'
p2427
I18
sS'bang'
p2428
I359
sS'thew'
p2429
I1
sS'ther'
p2430
I1
sS'bank'
p2431
I83
sS'bread'
p2432
I2
sS'absolve'
p2433
I2
sS'fature'
p2434
I1
sS'batre'
p2435
I1
sS'misbehave'
p2436
I6
sS'crystalize'
p2437
I2
sS'downshift'
p2438
I11
sS'pirouett'
p2439
I9
sS'outstretch'
p2440
I61
sS'sled'
p2441
I1
sS'pin-point'
p2442
I1
sS'lifter'
p2443
I1
sS'volcanoe'
p2444
I1
sS'flock'
p2445
I54
sS'ommit'
p2446
I1
sS'slew'
p2447
I15
sS'network'
p2448
I2
sS'cladd'
p2449
I1
sS'defriend'
p2450
I1
sS'engrave'
p2451
I17
sS'medicine'
p2452
I1
sS'preceed'
p2453
I2
sS'aroud'
p2454
I1
sS'colorless'
p2455
I1
sS'veto'
p2456
I45
sS'ntp'
p2457
I1
sS'butterfly-kiss'
p2458
I1
sS'stiff-armed'
p2459
I2
sS'mutilate'
p2460
I6
sS'drench'
p2461
I82
sS'dammit'
p2462
I1
sS'fake-laughed'
p2463
I1
sS'double-faulted'
p2464
I31
sS'raisin'
p2465
I1
sS'renew'
p2466
I85
sS'oppose'
p2467
I226
sS'recondition'
p2468
I1
sS'regress'
p2469
I7
sS'misconstrue'
p2470
I2
sS'truthfulness'
p2471
I1
sS'organize'
p2472
I338
sS'abolish'
p2473
I18
sS'render'
p2474
I67
sS're-enact'
p2475
I2
sS'jackknife'
p2476
I4
sS'starshine'
p2477
I1
sS'hamstring'
p2478
I3
sS'guzzle'
p2479
I25
sS'cosider'
p2480
I1
sS'pratice'
p2481
I1
sS'unsnap'
p2482
I53
sS'disembark'
p2483
I54
sS'tangle'
p2484
I159
sS'illustrate'
p2485
I74
sS'all-four'
p2486
I1
sS'vibrate'
p2487
I330
sS'brown-bagged'
p2488
I1
sS'compromise'
p2489
I39
sS'fumble'
p2490
I699
sS'whent'
p2491
I1
sS'inflate'
p2492
I34
sS'garble'
p2493
I5
sS'totter'
p2494
I37
sS'reccomend'
p2495
I2
sS'coudl'
p2496
I2
sS'textmessage'
p2497
I1
sS'heretry'
p2498
I1
sS'tithe'
p2499
I3
sS'rebuff'
p2500
I37
sS'toronto'
p2501
I1
sS'target'
p2502
I84
sS'hike'
p2503
I184
sS'un-wrap'
p2504
I2
sS'isaiah'
p2505
I1
sS'encase'
p2506
I48
sS'guilt'
p2507
I2
sS'iron'
p2508
I26
sS'design'
p2509
I252
sS'rewrite'
p2510
I29
sS'temporize'
p2511
I2
sS'navigate'
p2512
I195
sS'resound'
p2513
I46
sS'sconce'
p2514
I1
sS'chieftan'
p2515
I1
sS'pigafetta'
p2516
I1
sS'lull'
p2517
I36
sS'stomach'
p2518
I23
sS'hand-carry'
p2519
I1
sS'gear'
p2520
I9
sS'ponder'
p2521
I195
sS'widen'
p2522
I693
sS'leap-frog'
p2523
I1
sS'untack'
p2524
I1
sS'retrench'
p2525
I5
sS'transmit'
p2526
I37
sS'finagle'
p2527
I9
sS'quieten'
p2528
I18
sS'gussy'
p2529
I2
sS'writhe'
p2530
I335
sS'what'
p2531
I3
sS'supress'
p2532
I1
sS'backheel'
p2533
I3
sS're-energise'
p2534
I1
sS'phase'
p2535
I19
sS'intecept'
p2536
I1
sS'grave'
p2537
I2
sS're-erupt'
p2538
I1
sS'swamp'
p2539
I143
sS'bracket'
p2540
I14
sS'long-tossed'
p2541
I1
sS'unsubscribe'
p2542
I1
sS'massoud'
p2543
I1
sS'reserve'
p2544
I58
sS'itwa'
p2545
I1
sS'f-screw'
p2546
I1
sS'sui'
p2547
I2
sS'toast'
p2548
I67
sS'geyser'
p2549
I1
sS'desegregate'
p2550
I14
sS'sentence'
p2551
I51
sS'skye'
p2552
I1
sS'yea'
p2553
I1
sS'two-putt'
p2554
I5
sS'unjam'
p2555
I2
sS'sleuthe'
p2556
I1
sS'goalie'
p2557
I1
sS'do'
p2558
I41976
sS'dh'
p2559
I2
sS'systematize'
p2560
I1
sS'dd'
p2561
I1
sS'sup'
p2562
I2
sS'da'
p2563
I1
sS'side-step'
p2564
I26
sS'onboard'
p2565
I4
sS'beleive'
p2566
I2
sS'pretend-slice'
p2567
I1
sS'prune'
p2568
I7
sS'restake'
p2569
I1
sS'wham'
p2570
I3
sS'shouldnt'
p2571
I2
sS'replant'
p2572
I7
sS'w/e'
p2573
I1
sS'identify'
p2574
I442
sS'steal'
p2575
I1061
sS'steam'
p2576
I48
sS'reread'
p2577
I33
sS'misdirect'
p2578
I1
sS'assualt'
p2579
I2
sS'unmake'
p2580
I1
sS'plumage'
p2581
I1
sS'lacquer'
p2582
I1
sS'feetloaf'
p2583
I1
sS'away'
p2584
I1
sS'bien'
p2585
I2
sS're-locate'
p2586
I1
sS'drawl'
p2587
I36
sS'accord'
p2588
I3
sS'scuse'
p2589
I1
sS'modify'
p2590
I28
sS'dismissiveness'
p2591
I1
sS'impale'
p2592
I91
sS'emulsify'
p2593
I1
sS'wr'
p2594
I1
sS'unfold'
p2595
I370
sS'play/rest'
p2596
I1
sS'oomph'
p2597
I1
sS'cop'
p2598
I8
sS'frump'
p2599
I1
sS'cow'
p2600
I1
sS'steep'
p2601
I7
sS'bray'
p2602
I12
sS'coz'
p2603
I1
sS'juanita'
p2604
I1
sS'rear-end'
p2605
I2
sS'brag'
p2606
I45
sS'misunderstand'
p2607
I9
sS'agile'
p2608
I1
sS'takeroger'
p2609
I1
sS'com'
p2610
I1
sS'shoulder-charge'
p2611
I1
sS'coo'
p2612
I74
sS'con'
p2613
I4
sS'tough'
p2614
I6
sS'spear'
p2615
I75
sS'bestowr'
p2616
I1
sS'refile'
p2617
I2
sS'i.e'
p2618
I1
sS'refill'
p2619
I107
sS'speak'
p2620
I4357
sS'attemp'
p2621
I1
sS'accentuate'
p2622
I47
sS'glace'
p2623
I1
sS'resecure'
p2624
I1
sS'warmth'
p2625
I3
sS'leech'
p2626
I3
sS'co-owned'
p2627
I2
sS'excite'
p2628
I76
sS'overtax'
p2629
I1
sS'duffel'
p2630
I1
sS'hoist'
p2631
I342
sS'fess'
p2632
I2
sS'spellbind'
p2633
I2
sS'disarrange'
p2634
I2
sS'nose-dive'
p2635
I1
sS'inhibit'
p2636
I11
sS'break-in'
p2637
I1
sS'sculpt'
p2638
I13
sS'repack'
p2639
I8
sS'vage'
p2640
I1
sS'air'
p2641
I71
sS'aim'
p2642
I642
sS'ail'
p2643
I2
sS'thrash'
p2644
I239
sS'aid'
p2645
I96
sS'voice'
p2646
I97
sS'35th'
p2647
I2
sS'mistake'
p2648
I40
sS'loooove'
p2649
I1
sS'stink'
p2650
I96
sS'sticker'
p2651
I1
sS'sting'
p2652
I256
sS'dizzy'
p2653
I2
sS'brake'
p2654
I52
sS'cone'
p2655
I1
sS'exile'
p2656
I6
sS'uplift'
p2657
I7
sS'conk'
p2658
I10
sS'preseason'
p2659
I1
sS'perform'
p2660
I794
sS'authorise'
p2661
I1
sS'back-track'
p2662
I3
sS'grapple'
p2663
I82
sS'cataputle'
p2664
I1
sS'descend'
p2665
I840
sS'synch'
p2666
I5
sS'synce'
p2667
I3
sS'arent'
p2668
I2
sS'wheel'
p2669
I292
sS'sweetfor'
p2670
I1
sS'emphasise'
p2671
I7
sS'raid'
p2672
I80
sS'fuss'
p2673
I77
sS'ngish'
p2674
I1
sS'co-produce'
p2675
I3
sS'alittle'
p2676
I1
sS'hang'
p2677
I3886
sS'blind-fold'
p2678
I1
sS'rain'
p2679
I361
sS'hand'
p2680
I3575
sS'nix'
p2681
I17
sS'fuse'
p2682
I18
sS'descry'
p2683
I1
sS'enringe'
p2684
I1
sS'nip'
p2685
I237
sS'photo-doc'
p2686
I1
sS'supplicate'
p2687
I1
sS'jangle'
p2688
I27
sS'piazza'
p2689
I1
sS'humble'
p2690
I13
sS'taint'
p2691
I10
sS'tho'
p2692
I1
sS'jay-walk'
p2693
I1
sS'contact'
p2694
I325
sS'mamma'
p2695
I1
sS'snigger'
p2696
I16
sS'the'
p2697
I1
sS'chaiko'
p2698
I1
sS'tha'
p2699
I1
sS'mingle'
p2700
I140
sS'halloo'
p2701
I1
sS'dignify'
p2702
I4
sS'repose'
p2703
I3
sS'extol'
p2704
I11
sS'repost'
p2705
I1
sS'shoud'
p2706
I1
sS'interweave'
p2707
I4
sS"ma'at"
p2708
I1
sS'expect-that'
p2709
I1
sS'exalt'
p2710
I3
sS'shout'
p2711
I1897
sS'spread'
p2712
I1174
sS're-activate'
p2713
I1
sS'board'
p2714
I257
sS'slade'
p2715
I5
sS'was-have'
p2716
I1
sS'out-bombed'
p2717
I1
sS'got/am'
p2718
I1
sS'ached-throb'
p2719
I1
sS'capo'
p2720
I1
sS'barge'
p2721
I46
sS'everton'
p2722
I1
sS'shouted/growled'
p2723
I1
sS'menton'
p2724
I1
sS'retreat'
p2725
I712
sS'disadvantage'
p2726
I1
sS'rustle'
p2727
I142
sS'overfly'
p2728
I2
sS'arange'
p2729
I1
sS'theyre'
p2730
I1
sS'snug'
p2731
I11
sS'grizzle'
p2732
I1
sS'reassign'
p2733
I9
sS'augur'
p2734
I4
sS'two-handed'
p2735
I1
sS'hyperventilate'
p2736
I12
sS'half-eect'
p2737
I1
sS'flatter'
p2738
I12
sS'almsot'
p2739
I1
sS'rile'
p2740
I20
sS'hassle'
p2741
I3
sS'flatten'
p2742
I231
sS'duck-walked'
p2743
I1
sS'critique'
p2744
I5
sS'bore'
p2745
I27
sS'glamorize'
p2746
I4
sS'congratulate'
p2747
I111
sS'matriculate'
p2748
I4
sS'humor'
p2749
I12
sS'purple'
p2750
I1
sS'upsize'
p2751
I1
sS'finsh'
p2752
I1
sS'violinist'
p2753
I1
sS'peek'
p2754
I702
sS'peel'
p2755
I459
sS'aggress'
p2756
I1
sS'arive'
p2757
I1
sS'elucidate'
p2758
I2
sS'pose'
p2759
I385
sS'confer'
p2760
I57
sS'ply'
p2761
I26
sS'yiel'
p2762
I1
sS'phew'
p2763
I2
sS'dribb'
p2764
I1
sS'peer'
p2765
I1570
sS'peep'
p2766
I40
sS'poss'
p2767
I2
sS'chafe'
p2768
I21
sS'wuffle'
p2769
I1
sS'e-mailed'
p2770
I57
sS'gavele'
p2771
I2
sS'four-way'
p2772
I2
sS'cherish'
p2773
I55
sS'croak'
p2774
I63
sS'treble'
p2775
I1
sS'float'
p2776
I788
sS'bound'
p2777
I305
sS'clomp'
p2778
I12
sS'obligate'
p2779
I1
sS'wrong-foot'
p2780
I1
sS'stumble'
p2781
I2151
sS'wan'
p2782
I56
sS'familiarize'
p2783
I9
sS'connote'
p2784
I2
sS'wag'
p2785
I90
sS'bookend'
p2786
I3
sS'had-but'
p2787
I1
sS'wad'
p2788
I23
sS'went-just'
p2789
I1
sS'fight'
p2790
I2691
sS'reaggravate'
p2791
I2
sS'waz'
p2792
I1
sS'wax'
p2793
I19
sS'war'
p2794
I18
sS'fizz'
p2795
I9
sS'pirouette'
p2796
I2
sS'converse'
p2797
I68
sS'cohost'
p2798
I1
sS'reset'
p2799
I33
sS'absent'
p2800
I1
sS'scrimmage'
p2801
I2
sS'retie'
p2802
I3
sS'gchat'
p2803
I1
sS'chicken-wing'
p2804
I1
sS'high-know'
p2805
I1
sS'emit'
p2806
I108
sS'cannibalism'
p2807
I1
sS'back-crawl'
p2808
I1
sS'gang-tackling'
p2809
I1
sS'umpire'
p2810
I4
sS'molt'
p2811
I1
sS'manure'
p2812
I1
sS'subsist'
p2813
I7
sS'overhunt'
p2814
I1
sS'enlist'
p2815
I208
sS'mold'
p2816
I78
sS'encrypt'
p2817
I2
sS'half-grin'
p2818
I1
sS'stake'
p2819
I27
sS'handmade'
p2820
I3
sS'jone'
p2821
I1
sS'field-test'
p2822
I1
sS'test'
p2823
I487
sS'upholster'
p2824
I6
sS'outmanoeuvre'
p2825
I1
sS'frolic'
p2826
I20
sS'shrink'
p2827
I302
sS'tess'
p2828
I2
sS'orate'
p2829
I1
sS'xnayd'
p2830
I1
sS'stutter'
p2831
I70
sS'welcome'
p2832
I491
sS'update'
p2833
I68
sS'yardage'
p2834
I1
sS'belive'
p2835
I3
sS'taste-test'
p2836
I2
sS'detox'
p2837
I3
sS'ball-faked'
p2838
I1
sS'faze'
p2839
I31
sS'esthete'
p2840
I1
sS'gyrate'
p2841
I36
sS'stethoscope'
p2842
I1
sS'clearify'
p2843
I1
sS'stich'
p2844
I1
sS'charley'
p2845
I1
sS'dance'
p2846
I1346
sS'glam'
p2847
I1
sS'silverware'
p2848
I1
sS'one-upped'
p2849
I1
sS'supplement'
p2850
I21
sS'battle'
p2851
I278
sS'elode'
p2852
I36
sS'zone'
p2853
I16
sS'mallet'
p2854
I1
sS'zonk'
p2855
I1
sS'oughtta'
p2856
I2
sS'hump'
p2857
I9
sS'flash'
p2858
I1506
sS'counter-attack'
p2859
I2
sS'grapp'
p2860
I1
sS'compensate'
p2861
I67
sS'tusk'
p2862
I1
sS'italicize'
p2863
I1
sS'hume'
p2864
I1
sS'didthe'
p2865
I1
sS'brown'
p2866
I11
sS'predicate'
p2867
I1
sS'were-as'
p2868
I1
sS'fol'
p2869
I2
sS'chirrup'
p2870
I4
sS'two-time'
p2871
I2
sS'sunbathe'
p2872
I8
sS'trouble'
p2873
I43
sS'blast'
p2874
I503
sS'gun'
p2875
I117
sS'p'
p2876
I42
sS'soooo'
p2877
I1
sS'steeple'
p2878
I5
sS'high-tail'
p2879
I5
sS'disqualify'
p2880
I16
sS'brave'
p2881
I172
sS'regret'
p2882
I275
sS'mummble'
p2883
I1
sS'discover'
p2884
I1310
sS'agitate'
p2885
I19
sS'grump'
p2886
I5
sS'cost'
p2887
I533
sS'stupefy'
p2888
I3
sS'out-swim'
p2889
I1
sS'hadvnt'
p2890
I1
sS'ruger'
p2891
I1
sS'curse'
p2892
I738
sS'appear'
p2893
I6239
sS'outswim'
p2894
I1
sS'dlr'
p2895
I3
sS'galumph'
p2896
I1
sS'chuff'
p2897
I8
sS'appeal'
p2898
I216
sS'satisfy'
p2899
I123
sS'semi-blocked'
p2900
I1
sS'yiwen'
p2901
I1
sS'muslim'
p2902
I2
sS'gawk'
p2903
I81
sS'disclaim'
p2904
I1
sS'illumine'
p2905
I1
sS'gawp'
p2906
I7
sS'gorge'
p2907
I21
sS're-examine'
p2908
I5
sS'change'
p2909
I3393
sS'buck'
p2910
I234
sS'theorize'
p2911
I15
sS'round-house'
p2912
I3
sS'eke'
p2913
I14
sS're-marry'
p2914
I3
sS'disavow'
p2915
I4
sS'detonate'
p2916
I96
sS'hardright'
p2917
I1
sS'decouple'
p2918
I1
sS'defragment'
p2919
I1
sS'prye'
p2920
I1
sS'pillow'
p2921
I6
sS'couldfeel'
p2922
I1
sS'bolt'
p2923
I409
sS'3-putt'
p2924
I1
sS'snowboard'
p2925
I5
sS'demerge'
p2926
I1
sS'gesticulate'
p2927
I11
sS'market'
p2928
I42
sS'extry'
p2929
I1
sS're-arm'
p2930
I2
sS'prove'
p2931
I1105
sS'subvert'
p2932
I5
sS'captivate'
p2933
I34
sS'coalesce'
p2934
I49
sS'live'
p2935
I3136
sS'slough'
p2936
I7
sS'mitac'
p2937
I1
sS'entrance'
p2938
I11
sS'club'
p2939
I39
sS'cluck'
p2940
I34
sS'clue'
p2941
I2
sS'back-heeled'
p2942
I1
sS'finih'
p2943
I1
sS'judder'
p2944
I7
sS'prepay'
p2945
I4
sS'trank'
p2946
I1
sS'jab'
p2947
I220
sS'cap'
p2948
I208
sS'caw'
p2949
I22
sS'purge'
p2950
I29
sS'meow'
p2951
I34
sS'cai'
p2952
I1
sS'can'
p2953
I4
sS'cam'
p2954
I1
sS'cal'
p2955
I3
sS'cab'
p2956
I1
sS'spy'
p2957
I241
sS'attribute'
p2958
I76
sS'chip'
p2959
I40
sS'nock'
p2960
I23
sS'chit'
p2961
I3
sS'abort'
p2962
I11
sS'regale'
p2963
I30
sS'refine'
p2964
I12
sS'manhandle'
p2965
I14
sS'occur'
p2966
I697
sS'bankrupt'
p2967
I8
sS'publicise'
p2968
I1
sS'write'
p2969
I2903
sS'flank'
p2970
I86
sS'entrench'
p2971
I2
sS'deteriorate'
p2972
I76
sS'escalate'
p2973
I105
sS'dive'
p2974
I1311
sS'shoplift'
p2975
I2
sS'brazen'
p2976
I17
sS'produce'
p2977
I1180
sS'bear'
p2978
I738
sS'restate'
p2979
I14
sS'coagulate'
p2980
I2
sS'flourish'
p2981
I101
sS'?!'
p2982
I23
sS'remember'
p2983
I3025
sS'grandson'
p2984
I1
sS'rememeber'
p2985
I2
sS'rebut'
p2986
I6
sS'offend'
p2987
I46
sS'fireball'
p2988
I2
sS'crumple'
p2989
I340
sS'no.'
p2990
I30
sS'forfeit'
p2991
I21
sS'strt'
p2992
I1
sS'brain'
p2993
I2
sS'birdy'
p2994
I149
sS'cold'
p2995
I1
sS'braid'
p2996
I42
sS'acknowledge'
p2997
I452
sS'moisturize'
p2998
I5
sS'window'
p2999
I1
sS'suffocate'
p3000
I44
sS'bodyslamm'
p3001
I1
sS'saxon'
p3002
I1
sS'waggle'
p3003
I29
sS'inflame'
p3004
I10
sS'nought'
p3005
I1
sS'halt'
p3006
I395
sS'fling'
p3007
I853
sS'nod'
p3008
I5954
sS'noe'
p3009
I1
sS'rake'
p3010
I222
sS'introduce'
p3011
I939
sS'crouch-walk'
p3012
I1
sS'outgross'
p3013
I1
sS'run/walk'
p3014
I1
sS'recap'
p3015
I12
sS'son'
p3016
I1
sS'provision'
p3017
I1
sS'discuss'
p3018
I642
sS'expedite'
p3019
I8
sS'wont'
p3020
I10
sS'daub'
p3021
I4
sS'placate'
p3022
I20
sS'drop'
p3023
I7507
sS'drow'
p3024
I1
sS'confiscate'
p3025
I48
sS'deliever'
p3026
I1
sS'swelter'
p3027
I4
sS'sgt.'
p3028
I1
sS'el'
p3029
I1
sS'unblemish'
p3030
I1
sS'grouse'
p3031
I9
sS'gash'
p3032
I14
sS'cairn'
p3033
I1
sS'ed'
p3034
I80
sS'yeah'
p3035
I21
sS'goose'
p3036
I5
sS'oflinenand'
p3037
I1
sS'replay'
p3038
I76
sS'happen'
p3039
I3650
sS'one-timed'
p3040
I16
sS'accomplish'
p3041
I105
sS'stumble-fuck'
p3042
I1
sS'space'
p3043
I21
sS'thirst'
p3044
I4
sS'increase'
p3045
I849
sS'hallucinate'
p3046
I11
sS'tweeze'
p3047
I2
sS'cary'
p3048
I1
sS'scandalize'
p3049
I3
sS'thong'
p3050
I1
sS'carp'
p3051
I4
sS'cart'
p3052
I37
sS'rebel'
p3053
I46
sS'repurchase'
p3054
I1
sS'silverscreen'
p3055
I1
sS'card'
p3056
I10
sS'care'
p3057
I1231
sS'zig-zag'
p3058
I10
sS'couldn'
p3059
I8
sS'transition'
p3060
I13
sS'catalog'
p3061
I5
sS'super-sized'
p3062
I1
sS'profess'
p3063
I27
sS'support'
p3064
I862
sS'blind'
p3065
I129
sS'shouldna'
p3066
I1
sS'madam'
p3067
I1
sS'zag'
p3068
I7
sS'blink'
p3069
I1583
sS'brookshier'
p3070
I1
sS'consecrate'
p3071
I2
sS'swam/walked'
p3072
I1
sS'message'
p3073
I13
sS'zap'
p3074
I36
sS'size'
p3075
I113
sS're-engineer'
p3076
I1
sS'sheer'
p3077
I2
sS'sheet'
p3078
I2
sS'bollix'
p3079
I1
sS'breed'
p3080
I31
sS'carson'
p3081
I1
sS'yip'
p3082
I29
sS'fo'
p3083
I1
sS'uncurl'
p3084
I27
sS'sheen'
p3085
I5
sS'thaw'
p3086
I13
sS'wed.'
p3087
I1
sS'that'
p3088
I19
sS'transverse'
p3089
I1
sS'repossess'
p3090
I5
sS'disabuse'
p3091
I1
sS'short'
p3092
I18
sS'peck'
p3093
I118
sS'becuz'
p3094
I1
sS'clecnch'
p3095
I1
sS'recruit'
p3096
I170
sS'mass-produce'
p3097
I1
sS'karate'
p3098
I2
sS'gobble'
p3099
I31
sS'extinguish'
p3100
I86
sS'decompose'
p3101
I3
sS'surname'
p3102
I1
sS'slay'
p3103
I33
sS'saute'
p3104
I12
sS'premier'
p3105
I1
sS'slap'
p3106
I1068
sS'slam'
p3107
I3381
sS'trevor'
p3108
I1
sS'thutmose'
p3109
I1
sS'anger'
p3110
I91
sS'slag'
p3111
I1
sS'breakfast'
p3112
I7
sS'recover'
p3113
I966
sS'slab'
p3114
I1
sS'loke'
p3115
I1
sS'hookah'
p3116
I1
sS'pulverise'
p3117
I2
sS'online'
p3118
I2
sS'resqueeze'
p3119
I2
sS'said-or'
p3120
I1
sS'begin'
p3121
I17582
sS'prick'
p3122
I118
sS'price'
p3123
I7
sS'evaporate'
p3124
I87
sS'dream'
p3125
I397
sS'extradite'
p3126
I7
sS'steady'
p3127
I295
sS'sunset'
p3128
I5
sS'uninstall'
p3129
I2
sS'fifty'
p3130
I1
sS'right-hander'
p3131
I1
sS'boggle'
p3132
I8
sS'maine'
p3133
I1
sS'ground'
p3134
I67
sS'aint'
p3135
I3
sS'upgrade'
p3136
I48
sS'chit-chat'
p3137
I5
sS'stair'
p3138
I1
sS'title'
p3139
I14
sS'proportion'
p3140
I1
sS'jolt'
p3141
I271
sS'texture'
p3142
I1
sS'stain'
p3143
I226
sS'shrill'
p3144
I11
sS'cannon'
p3145
I4
sS'side-kick'
p3146
I1
sS'truly'
p3147
I1
sS'out-run'
p3148
I1
sS'cryin'
p3149
I2
sS'out-ego'
p3150
I1
sS'celebrate'
p3151
I433
sS'nanini'
p3152
I1
sS'sidearm'
p3153
I1
sS'bullpen'
p3154
I1
sS'hip-check'
p3155
I1
sS'entomb'
p3156
I3
sS'burst'
p3157
I528
sS'three-putt'
p3158
I3
sS'catcal'
p3159
I3
sS'hell'
p3160
I1
sS'hand-carve'
p3161
I1
sS'concern'
p3162
I44
sS'accommo-date'
p3163
I1
sS'dervish'
p3164
I1
sS'incite'
p3165
I27
sS'glaze'
p3166
I34
sS'shuteye'
p3167
I1
sS'import'
p3168
I35
sS'orchestrate'
p3169
I49
sS'notice'
p3170
I5673
sS'redshirt'
p3171
I12
sS'face-plant'
p3172
I2
sS'rerun'
p3173
I2
sS'pluck'
p3174
I358
sS'blame'
p3175
I442
sS'invision'
p3176
I1
sS'harrass'
p3177
I2
sS'broil'
p3178
I10
sS'hydrate'
p3179
I3
sS'warhol'
p3180
I1
sS'cleave'
p3181
I29
sS'guffaw'
p3182
I16
sS'crisper'
p3183
I1
sS'voicemail'
p3184
I5
sS'depeche'
p3185
I1
sS'wheely'
p3186
I1
sS'trouble-shoot'
p3187
I1
sS'haunch'
p3188
I1
sS'newfound'
p3189
I1
sS'evict'
p3190
I27
sS'wreathe'
p3191
I4
sS'dispatch'
p3192
I159
sS'onstage'
p3193
I3
sS'exploit'
p3194
I38
sS'elor'
p3195
I25
sS're-wind'
p3196
I1
sS'pre-occupy'
p3197
I1
sS'rebuild'
p3198
I84
sS'covert'
p3199
I1
sS'jerky'
p3200
I1
sS'reprice'
p3201
I1
sS'hmmmed'
p3202
I1
sS'asphyxiate'
p3203
I3
sS'woke-up'
p3204
I1
sS'conflate'
p3205
I1
sS'intubate'
p3206
I2
sS'stutter-stepped'
p3207
I1
sS'iwith'
p3208
I1
sS'foggy'
p3209
I1
sS'ruby'
p3210
I1
sS're-awakened'
p3211
I1
sS'4-0'
p3212
I1
sS'4-1'
p3213
I4
sS'compartmentalize'
p3214
I4
sS'walk-not'
p3215
I1
sS'trick'
p3216
I48
sS'scud'
p3217
I9
sS'table-hopped'
p3218
I1
sS'susi'
p3219
I1
sS'soil'
p3220
I10
sS'commander'
p3221
I1
sS'suss'
p3222
I1
sS'embrace'
p3223
I1104
sS'definitley'
p3224
I1
sS'shtfbled'
p3225
I1
sS'worry'
p3226
I873
sS'develop'
p3227
I881
sS'wayfare'
p3228
I1
sS'unbutton'
p3229
I227
sS'inquire'
p3230
I108
sS'pester'
p3231
I20
sS'coke'
p3232
I1
sS'wanted/needed'
p3233
I2
sS'lite'
p3234
I1
sS'hand-formed'
p3235
I1
sS'document'
p3236
I33
sS'noble'
p3237
I2
sS'finish'
p3238
I5045
sS'unlace'
p3239
I25
sS'preassign'
p3240
I1
sS'foam'
p3241
I14
sS'cross-check'
p3242
I2
sS'ramd'
p3243
I1
sS'cinder'
p3244
I1
sS'smelt'
p3245
I2
sS'validate'
p3246
I23
sS'desalinate'
p3247
I1
sS'bondage'
p3248
I2
sS'breeze'
p3249
I32
sS'demean'
p3250
I1
sS'alleviate'
p3251
I42
sS'coordinate'
p3252
I77
sS'taxi'
p3253
I41
sS'interpret'
p3254
I83
sS'noah'
p3255
I2
sS'vent'
p3256
I161
sS'baskin'
p3257
I1
sS'touce'
p3258
I1
sS'slugger'
p3259
I1
sS'touch'
p3260
I3944
sS'speed'
p3261
I1022
sS'outshout'
p3262
I2
sS'refurbish'
p3263
I8
sS'counterpunch'
p3264
I1
sS'allude'
p3265
I9
sS'verse'
p3266
I3
sS'cogitate'
p3267
I1
sS'swim'
p3268
I884
sS'ream'
p3269
I5
sS'hover'
p3270
I595
sS'exult'
p3271
I15
sS'read'
p3272
I2936
sS'swig'
p3273
I19
sS'discontinue'
p3274
I6
sS'amd'
p3275
I1
sS'leapfrog'
p3276
I5
sS'outsource'
p3277
I5
sS'detract'
p3278
I11
sS'amp'
p3279
I8
sS'cereblon'
p3280
I1
sS'reap'
p3281
I28
sS'rear'
p3282
I239
sS'becuase'
p3283
I1
sS'typify'
p3284
I12
sS'engross'
p3285
I4
sS'benefit'
p3286
I128
sS'downward'
p3287
I7
sS'double-bagged'
p3288
I1
sS'dharamsala'
p3289
I1
sS'harpoon'
p3290
I2
sS'buster'
p3291
I1
sS'smsed'
p3292
I7
sS'hemorrhage'
p3293
I1
sS'miscreant'
p3294
I1
sS'squirm'
p3295
I385
sS'wizz'
p3296
I1
sS'putter'
p3297
I27
sS'squire'
p3298
I6
sS'backslide'
p3299
I1
sS'crosscheck'
p3300
I1
sS're-entrench'
p3301
I1
sS'circumnavigate'
p3302
I7
sS'squirt'
p3303
I119
sS'over-do'
p3304
I1
sS'hustle'
p3305
I205
sS'sadden'
p3306
I11
sS'throb'
p3307
I202
sS'solict'
p3308
I1
sS'nme'
p3309
I1
sS'barrie'
p3310
I1
sS'assemble'
p3311
I152
sS'throw'
p3312
I8908
sS'emasculate'
p3313
I1
sS'vacillate'
p3314
I8
sS'over-promise'
p3315
I1
sS'acclimate'
p3316
I11
sS'wasdress'
p3317
I1
sS'49er'
p3318
I1
sS'journey'
p3319
I32
sS'wolf'
p3320
I32
sS'over-corrected'
p3321
I1
sS'chow'
p3322
I15
sS'internalize'
p3323
I3
sS'assassin'
p3324
I2
sS'backup'
p3325
I2
sS'renovate'
p3326
I21
sS'replce'
p3327
I1
sS'felf'
p3328
I1
sS'resuscitate'
p3329
I23
sS'lob'
p3330
I75
sS'al-qaida'
p3331
I1
sS'fast'
p3332
I9
sS'log'
p3333
I121
sS'prepare'
p3334
I898
sS'start'
p3335
I18697
sS'lop'
p3336
I13
sS'ak-47'
p3337
I1
sS'low'
p3338
I2
sS'loy'
p3339
I1
sS'brain-lock'
p3340
I1
sS'dead-ended'
p3341
I1
sS'leach'
p3342
I15
sS'unretire'
p3343
I1
sS'groan'
p3344
I1840
sS're-zero'
p3345
I1
sS'acknowedge'
p3346
I1
sS'posterior'
p3347
I1
sS'recoil'
p3348
I205
sS'wait-not'
p3349
I1
sS'hire'
p3350
I748
sS'hot-wire'
p3351
I3
sS'skedaddle'
p3352
I2
sS'default'
p3353
I36
sS'overpay'
p3354
I6
sS'buckel'
p3355
I1
sS'dander'
p3356
I1
sS'popularize'
p3357
I15
sS'cature'
p3358
I1
sS'ditch/sell/roll'
p3359
I1
sS'undertake'
p3360
I43
sS'subdue'
p3361
I64
sS'describe'
p3362
I813
sS'cold-cock'
p3363
I2
sS'immobilise'
p3364
I1
sS'mover'
p3365
I1
sS'infact'
p3366
I1
sS'tap-tap'
p3367
I2
sS'wolf-whistle'
p3368
I1
sS'carjack'
p3369
I3
sS'lookedforward'
p3370
I1
sS'trample'
p3371
I45
sS'scootch'
p3372
I1
sS'finger-comb'
p3373
I5
sS'power-walked'
p3374
I1
sS'poop'
p3375
I6
sS'one-hopped'
p3376
I4
sS'drift'
p3377
I1295
sS'overreact'
p3378
I5
sS'peal'
p3379
I17
sS'poof'
p3380
I3
sS'peak'
p3381
I128
sS'co-created'
p3382
I1
sS'pool'
p3383
I115
sS'assert'
p3384
I95
sS'unbind'
p3385
I1
sS'sarich'
p3386
I1
sS'smooch'
p3387
I6
sS'moonlight'
p3388
I9
sS'repay'
p3389
I74
sS'requisition'
p3390
I1
sS'satirize'
p3391
I4
sS'doddle'
p3392
I1
sS'hilt'
p3393
I3
sS'blanche'
p3394
I1
sS'pique'
p3395
I29
sS'unblock'
p3396
I2
sS'renegg'
p3397
I1
sS'renege'
p3398
I12
sS'cameron'
p3399
I1
sS'adhere'
p3400
I33
sS'carpet'
p3401
I6
sS'corps'
p3402
I1
sS'gymnast'
p3403
I1
sS'refocus'
p3404
I40
sS'insulate'
p3405
I8
sS'deke'
p3406
I9
sS'foster'
p3407
I27
sS'spearhead'
p3408
I16
sS'solicit'
p3409
I10
sS'skip'
p3410
I590
sS'apport'
p3411
I1
sS'sustain'
p3412
I184
sS'received-and'
p3413
I1
sS'instant-messaged'
p3414
I1
sS'serrate'
p3415
I1
sS'very'
p3416
I1
sS'parry'
p3417
I158
sS'sunny-side'
p3418
I1
sS'decide'
p3419
I6260
sS'underperform'
p3420
I1
sS'megaplexland'
p3421
I1
sS'bungeed'
p3422
I1
sS'curdle'
p3423
I4
sS'skate'
p3424
I223
sS'storm-proof'
p3425
I1
sS"fu'e"
p3426
I1
sS'skim'
p3427
I254
sS'retun'
p3428
I1
sS'vanquish'
p3429
I11
sS'hot-step'
p3430
I1
sS'ass'
p3431
I8
sS'fence'
p3432
I12
sS'did/said'
p3433
I1
sS'stigmatize'
p3434
I1
sS'orgasm'
p3435
I14
sS'kharlan'
p3436
I1
sS'enjoin'
p3437
I1
sS'two-footed'
p3438
I2
sS'redial'
p3439
I6
sS'hamper'
p3440
I56
sS'chuckle'
p3441
I743
sS'tussle'
p3442
I16
sS'labe'
p3443
I1
sS'unearth'
p3444
I37
sS'lurch'
p3445
I626
sS'skid'
p3446
I432
sS'hathah'
p3447
I1
sS'blindside'
p3448
I9
sS'apprciate'
p3449
I1
sS'overrule'
p3450
I32
sS'burglarize'
p3451
I1
sS'cr\xc3\xa8me'
p3452
I1
sS'loose'
p3453
I89
sS'disorganize'
p3454
I1
sS'forgive'
p3455
I135
sS'pantse'
p3456
I1
sS'speed-walk'
p3457
I1
sS'yummy'
p3458
I1
sS'outdistance'
p3459
I11
sS'whine'
p3460
I207
sS'soldier'
p3461
I10
sS'amount'
p3462
I102
sS'activision'
p3463
I1
sS're-signed'
p3464
I11
sS'lossen'
p3465
I1
sS'invalidate'
p3466
I4
sS'tereshinski'
p3467
I1
sS'shuffle'
p3468
I550
sS'mcinni'
p3469
I1
sS'dirk'
p3470
I1
sS'de-magnetize'
p3471
I1
sS'pulverize'
p3472
I5
sS're-bandage'
p3473
I1
sS'injure'
p3474
I144
sS'fish-tail'
p3475
I3
sS'shotgunn'
p3476
I1
sS'wnded'
p3477
I1
sS'reattach'
p3478
I24
sS'erode'
p3479
I16
sS'wouold'
p3480
I1
sS'excuse'
p3481
I343
sS'dessssstroy'
p3482
I1
sS'suction'
p3483
I6
sS'hurry'
p3484
I1841
sS'consumer-conscious'
p3485
I1
sS'grill'
p3486
I37
sS'gauche'
p3487
I1
sS'half-flap'
p3488
I1
sS'footlong'
p3489
I1
sS'retype'
p3490
I2
sS're-tee'
p3491
I1
sS'crab-crawl'
p3492
I3
sS'swash'
p3493
I1
sS'transcend'
p3494
I28
sS'rejuvenate'
p3495
I2
sS'boycott'
p3496
I17
sS'deep-fried'
p3497
I1
sS'phrase'
p3498
I4
sS'inspector'
p3499
I1
sS'cowlick'
p3500
I1
sS'stymie'
p3501
I6
sS'thieve'
p3502
I1
sS'utilize'
p3503
I18
sS'calmy'
p3504
I1
sS'reject'
p3505
I376
sS'idaho'
p3506
I1
sS're-iterate'
p3507
I1
sS'cirlce'
p3508
I1
sS'fu'
p3509
I1
sS'sneak'
p3510
I311
sS'continute'
p3511
I1
sS'off-load'
p3512
I3
sS'gasp'
p3513
I2786
sS'co-authored'
p3514
I1
sS'reelect'
p3515
I1
sS'custom-build'
p3516
I1
sS'criticize'
p3517
I180
sS'deluge'
p3518
I4
sS'laminate'
p3519
I1
sS'genuflect'
p3520
I9
sS'dread'
p3521
I71
sS'egg'
p3522
I14
sS'reinvestigate'
p3523
I1
sS'feed'
p3524
I763
sS'help'
p3525
I8101
sS'slouch'
p3526
I83
sS'sooo'
p3527
I1
sS'tranferr'
p3528
I1
sS"y'"
p3529
I3
sS'auburn'
p3530
I2
sS'preempt'
p3531
I8
sS'atsu'
p3532
I1
sS'staunch'
p3533
I23
sS'is/was'
p3534
I1
sS'reseat'
p3535
I3
sS'talkof'
p3536
I1
sS'lateral'
p3537
I4
sS'hand-cuff'
p3538
I1
sS'astonish'
p3539
I18
sS'reseal'
p3540
I2
sS'flabbergast'
p3541
I1
sS'finer'
p3542
I1
sS'fool'
p3543
I51
sS'stiffen'
p3544
I529
sS'self-edit'
p3545
I1
sS'pre-empted'
p3546
I3
sS'indefatigable'
p3547
I1
sS'vomit'
p3548
I230
sS'foot'
p3549
I6
sS'mcadoo'
p3550
I1
sS'menstruate'
p3551
I2
sS'stopper'
p3552
I1
sS'intervene'
p3553
I171
sS'bless'
p3554
I67
sS'dint'
p3555
I1
sS'slicken'
p3556
I2
sS'transcribe'
p3557
I8
sS'pamper'
p3558
I9
sS'haley'
p3559
I1
sS'easley'
p3560
I1
sS'deride'
p3561
I16
sS'heave'
p3562
I549
sS'zip-tie'
p3563
I2
sS'deary'
p3564
I1
sS'testify'
p3565
I292
sS'publish'
p3566
I284
sS'equate'
p3567
I7
sS'safety'
p3568
I13
sS're-record'
p3569
I2
sS'shrivel'
p3570
I54
sS'outrun'
p3571
I83
sS'smock'
p3572
I1
sS'duno'
p3573
I1
sS'head-faked'
p3574
I1
sS'ast'
p3575
I1
sS'unmolest'
p3576
I1
sS'reason'
p3577
I79
sS'base'
p3578
I25
sS'outdrew'
p3579
I1
sS'desiccate'
p3580
I1
sS'resettle'
p3581
I21
sS'phd'
p3582
I1
sS'bask'
p3583
I65
sS'bash'
p3584
I131
sS'dunt'
p3585
I2
sS'launch'
p3586
I1212
sS'inhi'
p3587
I1
sS'curtsey'
p3588
I5
sS'daisy'
p3589
I1
sS'undergo'
p3590
I195
sS'devolve'
p3591
I14
sS'assign'
p3592
I30
sS'beggary'
p3593
I1
sS'graduate'
p3594
I888
sS'obedience'
p3595
I1
sS'hebron'
p3596
I1
sS'effortless'
p3597
I1
sS'mist'
p3598
I13
sS'miss'
p3599
I3635
sS'worshiped8'
p3600
I1
sS'maple'
p3601
I1
sS'horse'
p3602
I3
sS'ostracize'
p3603
I6
sS'blossom'
p3604
I123
sS'purvey'
p3605
I1
sS'eddy'
p3606
I10
sS're-assume'
p3607
I2
sS'fielder'
p3608
I1
sS'cross-engineered'
p3609
I1
sS'unweave'
p3610
I1
sS'scheme'
p3611
I6
sS'refamiliarize'
p3612
I1
sS'nbspecide'
p3613
I1
sS'slosh'
p3614
I93
sS'giselle'
p3615
I1
sS'water-ski'
p3616
I1
sS'reawaken'
p3617
I7
sS'overdrive'
p3618
I1
sS'dissemble'
p3619
I1
sS'reroll'
p3620
I2
sS'apprentice'
p3621
I11
sS're-occupy'
p3622
I1
sS'lament'
p3623
I37
sS'anticipate'
p3624
I164
sS'grey'
p3625
I1
sS'screach'
p3626
I1
sS'obfuscate'
p3627
I2
sS'kindle'
p3628
I14
sS'garrison'
p3629
I1
sS'luagh'
p3630
I1
sS'demystify'
p3631
I1
sS'wasnt'
p3632
I77
sS'chipmunk'
p3633
I1
sS'overstate'
p3634
I4
sS'juice'
p3635
I3
sS'yowl'
p3636
I16
sS'null'
p3637
I1
sS'option'
p3638
I1
sS'lie'
p3639
I594
sS'adrift'
p3640
I1
sS'pimplify'
p3641
I1
sS'trance'
p3642
I1
sS'half-smile'
p3643
I4
sS'cave'
p3644
I120
sS'camouflage'
p3645
I16
sS'labour'
p3646
I10
sS'lip'
p3647
I23
sS'cross-examined'
p3648
I2
sS'hell-bent'
p3649
I1
sS'shot-putted'
p3650
I1
sS'quote'
p3651
I65
sS'electable'
p3652
I1
sS'promenade'
p3653
I2
sS'plunder'
p3654
I37
sS'mace'
p3655
I2
sS'bridle'
p3656
I19
sS'waty'
p3657
I1
sS"'cause"
p3658
I4
sS'position'
p3659
I437
sS'akse'
p3660
I1
sS'archery'
p3661
I1
sS'5-1'
p3662
I2
sS'5-0'
p3663
I2
sS'chronicle'
p3664
I41
sS'smoulder'
p3665
I10
sS'clear'
p3666
I1666
sS'procede'
p3667
I9
sS'cleat'
p3668
I1
sS'succor'
p3669
I1
sS'clean'
p3670
I1013
sS'blend'
p3671
I136
sS'ennoble'
p3672
I1
sS'flicker'
p3673
I561
sS'booze'
p3674
I1
sS'renegotiate'
p3675
I4
sS'sheave'
p3676
I1
sS'padres_agreed'
p3677
I1
sS'lobotomize'
p3678
I1
sS'shledd'
p3679
I1
sS'maggot'
p3680
I1
sS'eeriece'
p3681
I1
sS'destabilize'
p3682
I4
sS'un-chock'
p3683
I1
sS'undersell'
p3684
I1
sS'pretty'
p3685
I2
sS'circle'
p3686
I939
sS'hungout'
p3687
I2
sS'juke'
p3688
I7
sS'tittie'
p3689
I1
sS'weeble-wobbled'
p3690
I1
sS'outlast'
p3691
I21
sS'biopsy'
p3692
I1
sS'strut'
p3693
I100
sS'reorganise'
p3694
I1
sS'strum'
p3695
I58
sS'spackle'
p3696
I5
sS'intensify'
p3697
I195
sS'monogram'
p3698
I1
sS'adlib'
p3699
I1
sS'fluff'
p3700
I26
sS'immerse'
p3701
I36
sS'co-operate'
p3702
I3
sS'withe'
p3703
I1
sS'badge'
p3704
I5
sS'nightshirt'
p3705
I1
sS'costarr'
p3706
I1
sS'unsaddle'
p3707
I4
sS'mindspoke'
p3708
I1
sS'vestibule'
p3709
I1
sS're-boil'
p3710
I1
sS'hype'
p3711
I6
sS'sweet-talked'
p3712
I1
sS'slap-push'
p3713
I1
sS'cramp'
p3714
I23
sS'backtrack'
p3715
I56
sS'smiled-and'
p3716
I1
sS'crackle'
p3717
I254
sS'plough'
p3718
I22
sS'culture'
p3719
I1
sS'venerate'
p3720
I1
sS'localize'
p3721
I1
sS'close'
p3722
I9086
sS'despatch'
p3723
I4
sS'headbut'
p3724
I2
sS'mckay'
p3725
I1
sS'wow'
p3726
I25
sS'raikkonen'
p3727
I1
sS'woo'
p3728
I20
sS're-nock'
p3729
I1
sS'stalk'
p3730
I390
sS'vitalize'
p3731
I1
sS'piss'
p3732
I189
sS're-focus'
p3733
I2
sS'420'
p3734
I1
sS'spray'
p3735
I292
sS'rebudget'
p3736
I1
sS'distinguish'
p3737
I75
sS'dally'
p3738
I14
sS'zipper'
p3739
I2
sS'league'
p3740
I1
sS'commoditize'
p3741
I1
sS'would-not'
p3742
I1
sS'contemplate'
p3743
I164
sS'buzz'
p3744
I180
sS'vault'
p3745
I141
sS'secrete'
p3746
I11
sS'hewa'
p3747
I1
sS'oversleep'
p3748
I10
sS'liken'
p3749
I31
sS'badminton'
p3750
I1
sS'went-as'
p3751
I1
sS'scooch'
p3752
I6
sS'mumble'
p3753
I406
sS'unmatt'
p3754
I1
sS'ferrero'
p3755
I1
sS'pop-rivet'
p3756
I1
sS'rhoda'
p3757
I1
sS'wer'
p3758
I1
sS'stamp'
p3759
I113
sS'damp'
p3760
I79
sS'one-putted'
p3761
I1
sS'chicken-esque'
p3762
I1
sS'reciprocate'
p3763
I36
sS'damn'
p3764
I2
sS'napa'
p3765
I1
sS'threaten'
p3766
I778
sS'discove'
p3767
I1
sS'empty'
p3768
I380
sS'marry-at'
p3769
I1
sS'dialogue'
p3770
I1
sS'folund'
p3771
I1
sS'regroup'
p3772
I91
sS'liven'
p3773
I10
sS'wet'
p3774
I14
sS'deter'
p3775
I49
sS'ohhh'
p3776
I1
sS'hobnob'
p3777
I7
sS'furrow'
p3778
I77
sS'loom'
p3779
I338
sS'overplay'
p3780
I1
sS'look'
p3781
I42077
sS'fleed'
p3782
I1
sS'rope'
p3783
I19
sS'pace'
p3784
I442
sS'while'
p3785
I2
sS'match'
p3786
I827
sS'deplane'
p3787
I1
sS'endanger'
p3788
I8
sS'fleet'
p3789
I1
sS'loot'
p3790
I28
sS'socialise'
p3791
I3
sS'guide'
p3792
I773
sS'loop'
p3793
I196
sS'pack'
p3794
I737
sS'petal'
p3795
I1
sS'confound'
p3796
I15
sS'sluice'
p3797
I12
sS'reslung'
p3798
I1
sS'skype'
p3799
I8
sS'ready'
p3800
I173
sS'gimp'
p3801
I1
sS'grant'
p3802
I146
sS'squiggle'
p3803
I3
sS'belong'
p3804
I652
sS'shape-shift'
p3805
I5
sS'guest-taught'
p3806
I1
sS'shackle'
p3807
I18
sS'shag'
p3808
I17
sS'taunt'
p3809
I117
sS'conflict'
p3810
I14
sS'tamraz'
p3811
I1
sS'optic'
p3812
I1
sS'banter'
p3813
I18
sS'censure'
p3814
I3
sS'eeyore'
p3815
I1
sS'halfday'
p3816
I1
sS'indefinable'
p3817
I1
sS'haul'
p3818
I594
sS'grind'
p3819
I225
sS'un-cuff'
p3820
I1
sS'hand-signal'
p3821
I1
sS'romanticize'
p3822
I5
sS'abstain'
p3823
I25
sS'snap-kick'
p3824
I1
sS'siezure'
p3825
I1
sS'coul'
p3826
I1
sS'botch'
p3827
I7
sS'initialize'
p3828
I3
sS'superheat'
p3829
I1
sS'exhilarate'
p3830
I3
sS'harmonize'
p3831
I9
sS'vaccume'
p3832
I1
sS'march'
p3833
I757
sS'finalize'
p3834
I17
sS'evaluate'
p3835
I49
sS'characterise'
p3836
I1
sS'ruff'
p3837
I1
sS'game'
p3838
I2
sS'jibe'
p3839
I4
sS'worked-out'
p3840
I1
sS'co-chaired'
p3841
I1
sS'reoccupy'
p3842
I3
sS'sandblast'
p3843
I1
sS'outright'
p3844
I1
sS'eez'
p3845
I1
sS'signal'
p3846
I529
sS'stagnate'
p3847
I8
sS'eep'
p3848
I1
sS'manifest'
p3849
I21
sS'd-die'
p3850
I1
sS'restack'
p3851
I1
sS'run-and'
p3852
I1
sS'implemet'
p3853
I1
sS'centralize'
p3854
I2
sS'sketch'
p3855
I75
sS'wrack'
p3856
I53
sS'parade'
p3857
I46
sS'freebase'
p3858
I1
sS'lathe'
p3859
I2
sS'undress'
p3860
I99
sS'outnumber'
p3861
I43
sS'prance/pounce'
p3862
I1
sS'restrung'
p3863
I1
sS'stir'
p3864
I829
sS'savage'
p3865
I1
sS'donothe'
p3866
I1
sS'reckon'
p3867
I38
sS'simmer'
p3868
I75
sS'slash'
p3869
I647
sS'pillage'
p3870
I9
sS'fake-pumped'
p3871
I1
sS'emolliate'
p3872
I1
sS'upfake'
p3873
I1
sS'dehydrate'
p3874
I4
sS'run'
p3875
I16727
sS'darnell'
p3876
I1
sS'rub'
p3877
I1918
sS'poo-poo'
p3878
I1
sS'reoccur'
p3879
I1
sS'rue'
p3880
I2
sS'plotz'
p3881
I2
sS're-interview'
p3882
I1
sS'step'
p3883
I9041
sS'tongue-tie'
p3884
I1
sS'stew'
p3885
I27
sS'ache'
p3886
I502
sS'rup'
p3887
I1
sS'subtract'
p3888
I11
sS'rut'
p3889
I4
sS'shine'
p3890
I650
sS'splay'
p3891
I91
sS'wouldnt'
p3892
I18
sS'reappear'
p3893
I252
sS'surrender'
p3894
I317
sS'misterio'
p3895
I1
sS'stonewall'
p3896
I3
sS'hinge'
p3897
I21
sS'sake'
p3898
I2
sS'ide'
p3899
I2
sS'silence'
p3900
I120
sS'hansbrough'
p3901
I1
sS'visit'
p3902
I1495
sS'half-sound'
p3903
I1
sS'ensue'
p3904
I202
sS'struckout'
p3905
I1
sS'dwayne'
p3906
I1
sS'sashay'
p3907
I28
sS'fabius'
p3908
I1
sS'hand-checked'
p3909
I1
sS'belly-flop'
p3910
I3
sS'cofound'
p3911
I8
sS'rhp'
p3912
I3
sS'douse'
p3913
I76
sS'kamikaze'
p3914
I1
sS'burgeon'
p3915
I3
sS'manufacture'
p3916
I48
sS'rummage'
p3917
I252
sS'sizzle'
p3918
I136
sS'refrigerate'
p3919
I5
sS'sideswipe'
p3920
I7
sS'frost'
p3921
I15
sS'flexor'
p3922
I1
sS'alive'
p3923
I1
sS'deplan'
p3924
I2
sS'reek'
p3925
I51
sS'reel'
p3926
I195
sS'dull'
p3927
I21
sS'maraud'
p3928
I1
sS'skulk'
p3929
I18
sS'skull'
p3930
I3
sS'nestle'
p3931
I213
sS'shadow-boxed'
p3932
I1
sS'shouted-rocky-style-above'
p3933
I1
sS'over-power'
p3934
I1
sS'doesn'
p3935
I1
sS'do-even'
p3936
I1
sS'seethe'
p3937
I58
sS'devalue'
p3938
I7
sS're-fobinize'
p3939
I1
sS'surmise'
p3940
I42
sS'nab'
p3941
I49
sS'liberalize'
p3942
I7
sS'nag'
p3943
I39
sS'deside'
p3944
I2
sS'nak'
p3945
I7
sS'nan'
p3946
I1
sS'upstage'
p3947
I6
sS'love-bombed'
p3948
I1
sS'nap'
p3949
I56
sS'forge'
p3950
I77
sS'b/c'
p3951
I3
sS'drat'
p3952
I3
sS'draw'
p3953
I4396
sS'woud'
p3954
I2
sS'u-turn'
p3955
I3
sS'wihtout'
p3956
I1
sS'drax'
p3957
I1
sS'resign'
p3958
I448
sS'drag'
p3959
I1984
sS'kirtle'
p3960
I1
sS'visite'
p3961
I1
sS're-bait'
p3962
I1
sS'structure'
p3963
I8
sS'disolve'
p3964
I2
sS'supervene'
p3965
I1
sS'annoie'
p3966
I1
sS'orbit'
p3967
I14
sS'bribe'
p3968
I34
sS'reboard'
p3969
I2
sS'pinion'
p3970
I4
sS'gp'
p3971
I1
sS'psyche'
p3972
I2
sS'ge'
p3973
I1
sS'proposition'
p3974
I1
sS'izzy'
p3975
I1
sS'go'
p3976
I42215
sS'barbecue'
p3977
I2
sS'psycho'
p3978
I1
sS'ruminate'
p3979
I11
sS'dunk'
p3980
I98
sS'pervert'
p3981
I1
sS'wizard'
p3982
I1
sS'stave'
p3983
I53
sS'arid'
p3984
I1
sS'shack'
p3985
I1
sS'suite'
p3986
I1
sS'end'
p3987
I4933
sS'wave'
p3988
I2911
sS'disinter'
p3989
I1
sS'facebook'
p3990
I1
sS'underscore'
p3991
I29
sS'skew'
p3992
I5
sS'exitt'
p3993
I1
sS'stiff'
p3994
I2
sS'gender'
p3995
I1
sS'button'
p3996
I85
sS'arestunn'
p3997
I1
sS'hive'
p3998
I1
sS'evangelize'
p3999
I3
sS'carome'
p4000
I84
sS'demarcate'
p4001
I3
sS'enforce'
p4002
I38
sS'uhhhh'
p4003
I1
sS'dilute'
p4004
I14
sS'booty'
p4005
I1
sS'picket'
p4006
I10
sS'reline'
p4007
I1
sS'foound'
p4008
I1
sS'blitz'
p4009
I39
sS'jump'
p4010
I5777
sS'hose'
p4011
I14
sS'download'
p4012
I88
sS'book-writing'
p4013
I1
sS'click'
p4014
I1237
sS'unfasteneed'
p4015
I1
sS'poke'
p4016
I674
sS'opaque'
p4017
I4
sS'colonel'
p4018
I1
sS'vampire'
p4019
I1
sS'exacerbate'
p4020
I9
sS'valet'
p4021
I4
sS'seemedunable'
p4022
I1
sS'experiment'
p4023
I70
sS'infuse'
p4024
I24
sS'lengel'
p4025
I1
sS'stanch'
p4026
I13
sS'prescribe'
p4027
I16
sS'quell'
p4028
I66
sS'logout'
p4029
I1
sS're-run'
p4030
I1
sS'pancake'
p4031
I1
sS'brunet'
p4032
I1
sS'convert'
p4033
I418
sS'ula'
p4034
I1
sS'chant'
p4035
I203
sS'repel'
p4036
I28
sS'overseer'
p4037
I1
sS'drumpit'
p4038
I1
sS'strong-arm'
p4039
I3
sS'behead'
p4040
I15
sS'wif'
p4041
I1
sS'foresee'
p4042
I13
sS'owned-but'
p4043
I1
sS'win'
p4044
I5654
sS'manage'
p4045
I3605
sS'infest'
p4046
I1
sS'submerse'
p4047
I1
sS'codirect'
p4048
I1
sS'cloud'
p4049
I90
sS'imbue'
p4050
I5
sS'buy-except'
p4051
I1
sS'crap'
p4052
I6
sS'snoop'
p4053
I4
sS'crab'
p4054
I2
sS'peach'
p4055
I1
sS'cram'
p4056
I94
sS'recompose'
p4057
I3
sS'betray'
p4058
I135
sS'cackle'
p4059
I50
sS'lacerate'
p4060
I4
sS'hotfoot'
p4061
I2
sS'eream'
p4062
I1
sS'glared-and'
p4063
I1
sS'disrobe'
p4064
I26
sS'resize'
p4065
I1
sS'consort'
p4066
I4
sS'ride'
p4067
I1962
sS'donut'
p4068
I2
sS're-discover'
p4069
I1
sS'meet'
p4070
I7001
sS'nurture'
p4071
I48
sS'stoll'
p4072
I1
sS'control'
p4073
I733
sS'waaaay'
p4074
I1
sS'beleaguer'
p4075
I4
sS'semi-circle'
p4076
I1
sS'atone'
p4077
I3
sS'kick-started'
p4078
I6
sS'distinquish'
p4079
I1
sS'corrale'
p4080
I3
sS'synchronise'
p4081
I1
sS'out-schemed'
p4082
I1
sS'skirt'
p4083
I235
sS'\xe3\x81\x84\xe3\x81\xa4\xe3\x81\xbe\xe3\x81\xa7\xe3\x82\x82\xe3\x83\xaa\xe3\x83\xa5\xe3\x82\xa6on'
p4084
I1
sS'hesitate'
p4085
I1103
sS'vibe'
p4086
I1
sS'glady'
p4087
I1
sS'perspire'
p4088
I16
sS'reestablish'
p4089
I13
sS'deplore'
p4090
I11
sS'fare'
p4091
I65
sS'ob-la-di-ed'
p4092
I1
sS'steamroll'
p4093
I7
sS'tillman'
p4094
I1
sS'doubled-faulted'
p4095
I1
sS'fart'
p4096
I10
sS'nevin'
p4097
I1
sS'prance'
p4098
I76
sS'moozic'
p4099
I1
sS'foment'
p4100
I5
sS'xqi'
p4101
I1
sS'day-dream'
p4102
I1
sS'corral'
p4103
I118
sS'scoop'
p4104
I670
sS'scoot'
p4105
I465
sS'rove'
p4106
I13
sS'epidemiologist'
p4107
I1
sS'deshell'
p4108
I1
sS'enclose'
p4109
I75
sS'cruise'
p4110
I155
sS'embezzle'
p4111
I3
sS'volley'
p4112
I39
sS'hip-checked'
p4113
I1
sS'hock'
p4114
I4
sS'brood'
p4115
I28
sS'job-hunt'
p4116
I1
sS'brook'
p4117
I9
sS'eeyor'
p4118
I1
sS'enshrine'
p4119
I2
sS'demoralize'
p4120
I2
sS'swaddle'
p4121
I6
sS'frogmarch'
p4122
I1
sS'nibb'
p4123
I1
sS'defensemen'
p4124
I1
sS're-board'
p4125
I2
sS'propound'
p4126
I2
sS'front'
p4127
I13
sS'refuel'
p4128
I13
sS'chasten'
p4129
I5
sS'storyboard'
p4130
I2
sS'bleep'
p4131
I5
sS'playoff'
p4132
I1
sS'slide'
p4133
I6454
sS'purl'
p4134
I4
sS'upward'
p4135
I19
sS'unwind'
p4136
I74
sS'illuminate'
p4137
I278
sS'0972arly'
p4138
I1
sS'chunk'
p4139
I7
sS'constitute'
p4140
I40
sS'seesaw'
p4141
I7
sS'measure'
p4142
I164
sS'hmmed'
p4143
I2
sS'ille'
p4144
I1
sS'butch'
p4145
I1
sS'kapoor'
p4146
I1
sS'armor'
p4147
I1
sS'confess'
p4148
I187
sS'crash-land'
p4149
I4
sS'fathom'
p4150
I3
sS'rebook'
p4151
I3
sS'!?'
p4152
I4
sS'wanted-needed-this'
p4153
I1
sS'wich'
p4154
I1
sS'misidentify'
p4155
I5
sS'cause'
p4156
I1676
sS'obsess'
p4157
I9
sS'hopscotch'
p4158
I1
sS'cohabitate'
p4159
I1
sS'undo'
p4160
I302
sS'jury-rigged'
p4161
I5
sS'ect'
p4162
I1
sS'transpose'
p4163
I3
sS'scalloper'
p4164
I1
sS'sneer'
p4165
I120
sS'ridge'
p4166
I2
sS'wuite'
p4167
I1
sS'route'
p4168
I7
sS'eens'
p4169
I1
sS'ask'
p4170
I7475
sS'keep'
p4171
I14021
sS'stride'
p4172
I983
sS'keel'
p4173
I29
sS'outduel'
p4174
I12
sS'projectile'
p4175
I1
sS'shoehorn'
p4176
I2
sS'clamour'
p4177
I3
sS'sleep-walked'
p4178
I2
sS'confuse'
p4179
I122
sS'redefine'
p4180
I10
sS're-group'
p4181
I1
sS'extrude'
p4182
I3
sS're-double'
p4183
I1
sS'bitch'
p4184
I10
sS'stump'
p4185
I13
sS'hehe'
p4186
I1
sS'jealousy-tighten'
p4187
I1
sS'attatch'
p4188
I1
sS'rusher'
p4189
I1
sS'filthy'
p4190
I1
sS'unjamm'
p4191
I1
sS'dimasi'
p4192
I1
sS'attach'
p4193
I236
sS'attack'
p4194
I825
sS're-thread'
p4195
I1
sS'fossilize'
p4196
I1
sS'reseed'
p4197
I1
sS'circulate'
p4198
I43
sS're-write'
p4199
I1
sS'configure'
p4200
I5
sS'deconstruct'
p4201
I3
sS'peopleknew'
p4202
I1
sS'punish'
p4203
I59
sS'out-fished'
p4204
I1
sS'apologise'
p4205
I33
sS'sy'
p4206
I1
sS'innovate'
p4207
I3
sS'feint'
p4208
I59
sS'swivel-hipped'
p4209
I1
sS'outline'
p4210
I165
sS'photograph'
p4211
I102
sS'spurn'
p4212
I29
sS'bel'
p4213
I1
sS'bloat'
p4214
I2
sS'glisten'
p4215
I93
sS'double-shifted'
p4216
I1
sS'beg'
p4217
I447
sS'bed'
p4218
I10
sS'discolor'
p4219
I1
sS'arc'
p4220
I105
sS'spurt'
p4221
I121
sS'bet'
p4222
I161
sS'exhibit'
p4223
I84
sS're-entered'
p4224
I12
sS'duma'
p4225
I1
sS'day-whether'
p4226
I1
sS'torment'
p4227
I130
sS'need'
p4228
I7046
sS'reraise'
p4229
I1
sS'border'
p4230
I59
sS'high-fived'
p4231
I9
sS'screw'
p4232
I234
sS'bastard'
p4233
I11
sS'laterale'
p4234
I9
sS'jaunt'
p4235
I5
sS're-live'
p4236
I4
sS'singe'
p4237
I46
sS'jail'
p4238
I10
sS'visor'
p4239
I1
sS'mongrel'
p4240
I1
sS'dissappoint'
p4241
I2
sS'deploy'
p4242
I51
sS'disgorge'
p4243
I11
sS'resplendent'
p4244
I1
sS'key-card'
p4245
I2
sS'counterbalance'
p4246
I1
sS'energise'
p4247
I1
sS'awe'
p4248
I4
sS'gallivant'
p4249
I1
sS'eject'
p4250
I48
sS'eachother'
p4251
I1
sS'upset'
p4252
I79
sS'prickle'
p4253
I52
sS'suture'
p4254
I3
sS'gesture'
p4255
I694
sS'acclimatise'
p4256
I2
sS'constrain'
p4257
I9
sS'deface'
p4258
I2
sS'unsettle'
p4259
I15
sS'buzzer-beater'
p4260
I1
sS'seclude'
p4261
I10
sS'crate'
p4262
I5
sS'sidefoot'
p4263
I3
sS'molest'
p4264
I15
sS'envy'
p4265
I64
sS'cavort'
p4266
I13
sS'tire'
p4267
I85
sS'hadn'
p4268
I8
sS'dramatize'
p4269
I5
sS'reallywere'
p4270
I1
sS'wreak'
p4271
I26
sS're-evaluate'
p4272
I3
sS'hector'
p4273
I1
sS'shinny'
p4274
I3
sS'rasp'
p4275
I64
sS'fuel'
p4276
I150
sS'achieve'
p4277
I206
sS'lip-synce'
p4278
I1
sS'dodge'
p4279
I713
sS'gratify'
p4280
I2
sS'righteousness'
p4281
I1
sS'cracked-and'
p4282
I1
sS'?!?!?!?'
p4283
I1
sS'start-ed'
p4284
I1
sS'joint'
p4285
I1
sS'werent'
p4286
I6
sS'computerize'
p4287
I2
sS'clearence'
p4288
I1
sS'gray'
p4289
I1
sS'didn?t'
p4290
I2
sS'nbspend'
p4291
I1
sS'gust'
p4292
I28
sS'quarantine'
p4293
I2
sS'jase'
p4294
I4
sS'ordain'
p4295
I1
sS'sha'
p4296
I1
sS'gush'
p4297
I211
sS'contain'
p4298
I750
sS'grab'
p4299
I12009
sS'grad'
p4300
I2
sS'conduct'
p4301
I284
sS'sho'
p4302
I1
sS'bare-hand'
p4303
I1
sS'chaperone'
p4304
I1
sS'askede'
p4305
I1
sS'calloway'
p4306
I1
sS'portend'
p4307
I4
sS'elain'
p4308
I260
sS'reinforce'
p4309
I68
sS'powder'
p4310
I1
sS'klutz'
p4311
I1
sS'thought-move'
p4312
I1
sS'reconfirm'
p4313
I4
sS'empathise'
p4314
I3
sS'southward'
p4315
I1
sS'tend'
p4316
I390
sS'hit-and-run'
p4317
I1
sS'realign'
p4318
I7
sS'state'
p4319
I197
sS'beautify'
p4320
I3
sS'lug'
p4321
I74
sS'juggle'
p4322
I37
sS'sabotage'
p4323
I24
sS'tent'
p4324
I8
sS'ken'
p4325
I1
sS'jig'
p4326
I2
sS'ked'
p4327
I1
sS'interfere'
p4328
I90
sS'bemoan'
p4329
I9
sS'magi'
p4330
I1
sS'derive'
p4331
I14
sS'key'
p4332
I57
sS'police'
p4333
I9
sS'precious'
p4334
I1
sS'sheremove'
p4335
I1
sS'monitor'
p4336
I124
sS'aquo'
p4337
I1
sS'inundate'
p4338
I8
sS'sniff'
p4339
I623
sS'career'
p4340
I9
sS'outrank'
p4341
I4
sS'trove'
p4342
I1
sS'roil'
p4343
I40
sS'preannounce'
p4344
I1
sS'admit'
p4345
I609
sS'careen'
p4346
I105
sS'red-flag'
p4347
I1
sS'christen'
p4348
I19
sS'spliff'
p4349
I1
sS'gitt'
p4350
I1
sS'maximize'
p4351
I20
sS'quit'
p4352
I724
sS'inhale'
p4353
I725
sS'yay'
p4354
I2
sS'quip'
p4355
I19
sS'disintegrate'
p4356
I114
sS'yaw'
p4357
I4
sS'yap'
p4358
I11
sS'quiz'
p4359
I23
sS'treat'
p4360
I451
sS'minimise'
p4361
I1
sS'oxygenate'
p4362
I1
sS'snivel'
p4363
I3
sS'sensei'
p4364
I1
sS'titter'
p4365
I10
sS'outraise'
p4366
I1
sS'slow-roll'
p4367
I1
sS'flubb'
p4368
I22
sS'adorer'
p4369
I1
sS'ripen'
p4370
I10
sS'chalk'
p4371
I17
sS'f*cked'
p4372
I2
sS'riposte'
p4373
I2
sS'suckle'
p4374
I121
sS'resident'
p4375
I1
sS'demo'
p4376
I1
sS'backdate'
p4377
I2
sS'surface'
p4378
I215
sS'unstop'
p4379
I2
sS'lamien'
p4380
I1
sS'hearten'
p4381
I1
sS'double-pumped'
p4382
I2
sS'capture'
p4383
I468
sS'balloon'
p4384
I35
sS're-rigged'
p4385
I1
sS'wangle'
p4386
I6
sS'party'
p4387
I45
sS'boom-bang'
p4388
I1
sS'absorb'
p4389
I236
sS'effect'
p4390
I10
sS'sts-with'
p4391
I1
sS'refashion'
p4392
I2
sS'metlife'
p4393
I1
sS'sumimasen-ed'
p4394
I1
sS'backstepp'
p4395
I1
sS'rift'
p4396
I1
sS'weld'
p4397
I13
sS'intercede'
p4398
I12
sS'lunch'
p4399
I22
sS'glower'
p4400
I95
sS'well'
p4401
I192
sS'drindle'
p4402
I1
sS'drone'
p4403
I46
sS'mottle'
p4404
I3
sS'cynic'
p4405
I1
sS'restore'
p4406
I214
sS'underdog'
p4407
I1
sS'waddle-walk'
p4408
I1
sS'dose'
p4409
I4
sS'whapp'
p4410
I2
sS'ping-pong'
p4411
I2
sS'cat-call'
p4412
I1
sS'snicker'
p4413
I104
sS'fine-tune'
p4414
I2
sS'seeemd'
p4415
I1
sS'warrant'
p4416
I16
sS'nate'
p4417
I3
sS'canter'
p4418
I26
sS'kick-start'
p4419
I5
sS'fate'
p4420
I1
sS'burden'
p4421
I6
sS'invlove'
p4422
I1
sS'unseed'
p4423
I1
sS'ame'
p4424
I1
sS'lincoln'
p4425
I1
sS'apportion'
p4426
I1
sS'candy'
p4427
I4
sS'lose'
p4428
I5654
sS'divest'
p4429
I22
sS'page'
p4430
I20
sS'gilliam'
p4431
I1
sS'shed'
p4432
I258
sS'glare'
p4433
I990
sS'twitter'
p4434
I2
sS'scuffle'
p4435
I23
sS'hush'
p4436
I46
sS'husk'
p4437
I2
sS'fumigate'
p4438
I2
sS'home'
p4439
I11
sS'peter'
p4440
I18
sS'drizzle'
p4441
I24
sS'pinpoint'
p4442
I71
sS'overlay'
p4443
I7
sS'half-joke'
p4444
I1
sS'kettle'
p4445
I1
sS'overlap'
p4446
I22
sS'e-mail'
p4447
I29
sS'cradle'
p4448
I347
sS'duck-hooked'
p4449
I1
sS'percolate'
p4450
I3
sS'unchain'
p4451
I7
sS'hinder'
p4452
I38
sS'duh'
p4453
I1
sS'disentangle'
p4454
I24
sS'co-produced'
p4455
I1
sS'swirve'
p4456
I3
sS'offset'
p4457
I40
sS'java'
p4458
I2
sS'double-clutched'
p4459
I1
sS'unbreak'
p4460
I1
sS'epitomize'
p4461
I17
sS'fuddle'
p4462
I2
sS'tongue'
p4463
I11
sS'two-parted'
p4464
I1
sS're-pump'
p4465
I1
sS'articulate'
p4466
I20
sS'congregate'
p4467
I35
sS'couldnt'
p4468
I55
sS'shelower'
p4469
I1
sS'contruct'
p4470
I1
sS'second-guess'
p4471
I12
sS'miscount'
p4472
I1
sS'veil'
p4473
I17
sS'jink'
p4474
I1
sS'wimp'
p4475
I9
sS'whoo'
p4476
I1
sS'top-scored'
p4477
I1
sS'jinx'
p4478
I4
sS'backhand'
p4479
I97
sS'destemm'
p4480
I1
sS'elate'
p4481
I1
sS'unfriend'
p4482
I1
sS'faceplate'
p4483
I1
sS'evacuate'
p4484
I46
sS'gait'
p4485
I2
sS'admonish'
p4486
I31
sS'rejigger'
p4487
I2
sS'gain'
p4488
I1034
sS'wince'
p4489
I769
sS'winch'
p4490
I3
sS'ha'
p4491
I2
sS'eat'
p4492
I3793
sS'hd'
p4493
I1
sS'goaly'
p4494
I1
sS'google-jack'
p4495
I1
sS'commit'
p4496
I437
sS'grieve'
p4497
I45
sS'unlock'
p4498
I783
sS'manifesto'
p4499
I1
sS'limit'
p4500
I190
sS'heiress'
p4501
I1
sS'piece'
p4502
I42
sS'display'
p4503
I461
sS'inhere'
p4504
I1
sS'devise'
p4505
I92
sS'jesuit'
p4506
I1
sS'twist'
p4507
I1424
sS'penne'
p4508
I1
sS'aybar'
p4509
I1
sS'thestudy'
p4510
I1
sS'second-highest'
p4511
I1
sS'contest'
p4512
I28
sS'chemise'
p4513
I2
sS'out-source'
p4514
I1
sS'perdition'
p4515
I2
sS'fledgling'
p4516
I1
sS'talkin'
p4517
I1
sS'elaind'
p4518
I1
sS'star'
p4519
I144
sS'free-lanced'
p4520
I1
sS'lubricate'
p4521
I13
sS'stay'
p4522
I5902
sS'foil'
p4523
I22
sS'stab'
p4524
I429
sS'tailgate'
p4525
I2
sS'jack-knife'
p4526
I1
sS'appoint'
p4527
I166
sS'shunt'
p4528
I11
sS'fertilize'
p4529
I4
sS'honchoe'
p4530
I1
sS'catapault'
p4531
I3
sS'ij6z'
p4532
I1
sS'inset'
p4533
I2
sS'blogg'
p4534
I13
sS'unwond'
p4535
I1
sS'pardon'
p4536
I20
sS'unfurl'
p4537
I101
sS'protest'
p4538
I374
sS'rampart'
p4539
I1
sS'captain'
p4540
I9
sS'calculate'
p4541
I103
sS'bull-rushed'
p4542
I1
sS'swab'
p4543
I20
sS'refinish'
p4544
I4
sS'swan'
p4545
I1
sS'swat'
p4546
I212
sS'unroll'
p4547
I63
sS'swap'
p4548
I103
sS'recycle'
p4549
I15
sS'sorry'
p4550
I3
sS'sway'
p4551
I547
sS'undertreat'
p4552
I1
sS'vash'
p4553
I1
sS'collaborate'
p4554
I51
sS'rescue'
p4555
I256
sS'appal'
p4556
I7
sS'void'
p4557
I7
sS'shelook'
p4558
I1
sS'warble'
p4559
I17
sS'redact'
p4560
I1
sS'smack'
p4561
I666
sS'govern'
p4562
I29
sS'affect'
p4563
I219
sS'hitch'
p4564
I126
sS'lefthand'
p4565
I1
sS'embroider'
p4566
I34
sS'boohoo'
p4567
I1
sS'vector'
p4568
I1
sS'enhance'
p4569
I95
sS'one-up'
p4570
I2
sS'machine-gun'
p4571
I1
sS'force'
p4572
I2933
sS'quilt'
p4573
I4
sS'hear-all'
p4574
I1
sS'redrew'
p4575
I3
sS'crave'
p4576
I143
sS'half-pop'
p4577
I1
sS'kidnap'
p4578
I47
sS'quill'
p4579
I1
sS'even'
p4580
I71
sS'wreck'
p4581
I61
sS'theriot'
p4582
I1
sS'hazy'
p4583
I1
sS'haze'
p4584
I3
sS'sunder'
p4585
I5
sS'net'
p4586
I61
sS'med'
p4587
I2
sS'never'
p4588
I2
sS'mew'
p4589
I14
sS'nevel'
p4590
I1
sS'102'
p4591
I1
sS'sugar-talked'
p4592
I1
sS'nosedive'
p4593
I2
sS'odd-jobbed'
p4594
I1
sS'dred'
p4595
I2
sS'resupply'
p4596
I5
sS'dogpaddle'
p4597
I1
sS'dry'
p4598
I488
sS'luther'
p4599
I1
sS'torry'
p4600
I1
sS'taper'
p4601
I54
sS'credit'
p4602
I71
sS'harass'
p4603
I60
sS'permit'
p4604
I134
sS'dre'
p4605
I1
sS'intrigue'
p4606
I41
sS'serch'
p4607
I1
sS'double-hauled'
p4608
I1
sS'whatnot'
p4609
I2
sS'excoriate'
p4610
I1
sS'hunch'
p4611
I168
sS'campaign'
p4612
I3
sS'bayonet'
p4613
I1
sS'dehumanize'
p4614
I3
sS're-unite'
p4615
I1
sS'elude'
p4616
I141
sS'overstuff'
p4617
I2
sS'remould'
p4618
I1
sS'circumvent'
p4619
I20
sS'mooch'
p4620
I5
sS'self-destruct'
p4621
I7
sS'overhear'
p4622
I87
sS'cough'
p4623
I641
sS'overheat'
p4624
I5
sS'cali'
p4625
I1
sS'call'
p4626
I7827
sS'calm'
p4627
I845
sS'typo'
p4628
I1
sS'recommend'
p4629
I221
sS'survive'
p4630
I739
sS'type'
p4631
I166
sS'cale'
p4632
I3
sS'bluegrass'
p4633
I1
sS'slam-dunk'
p4634
I1
sS'expose'
p4635
I212
sS'attendant-stare'
p4636
I1
sS'warn'
p4637
I573
sS'warm'
p4638
I512
sS'pecan'
p4639
I1
sS'have-and'
p4640
I1
sS'tightrop'
p4641
I1
sS'ward'
p4642
I97
sS'blindfold'
p4643
I20
sS'retouch'
p4644
I3
sS'room'
p4645
I10
sS'looked-scare'
p4646
I1
sS'roof'
p4647
I4
sS'fingerbrush'
p4648
I1
sS'endow'
p4649
I7
sS'crazy-except'
p4650
I1
sS'defer'
p4651
I13
sS'give'
p4652
I18287
sS'punk'
p4653
I1
sS'climax'
p4654
I49
sS'slenderize'
p4655
I1
sS'assent'
p4656
I3
sS'nonresident'
p4657
I1
sS'involve'
p4658
I261
sS'dr.ive'
p4659
I1
sS'degenerate'
p4660
I20
sS'rig'
p4661
I37
sS'3fapp'
p4662
I1
sS'freshen'
p4663
I53
sS'defen'
p4664
I1
sS'loathe'
p4665
I38
sS'sideline'
p4666
I3
sS'strop'
p4667
I1
sS'reprogram'
p4668
I3
sS'salivate'
p4669
I19
sS'sate'
p4670
I5
sS'answer'
p4671
I1662
sS'hyperbole'
p4672
I1
sS'quibble'
p4673
I1
sS'untill'
p4674
I4
sS'disassemble'
p4675
I14
sS'abdomen'
p4676
I1
sS'curiosity'
p4677
I1
sS'summarize'
p4678
I14
sS'purchase'
p4679
I369
sS'attempt'
p4680
I875
sS'capitalise'
p4681
I1
sS'looove'
p4682
I1
sS'pulsate'
p4683
I47
sS'bedazzle'
p4684
I2
sS'goodbye'
p4685
I1
sS'operate'
p4686
I263
sS'wus'
p4687
I1
sS'wuv'
p4688
I1
sS'deck'
p4689
I7
sS'pothole'
p4690
I2
sS'wuz'
p4691
I7
sS'ensnare'
p4692
I11
sS'inconclusive'
p4693
I1
sS'befall'
p4694
I6
sS'fortify'
p4695
I20
sS'helene'
p4696
I1
sS'wud'
p4697
I3
sS'miscarry'
p4698
I4
sS'suceed'
p4699
I1
sS'outleap'
p4700
I2
sS'discredit'
p4701
I12
sS'gotto0keep'
p4702
I1
sS'better'
p4703
I6
sS'persist'
p4704
I130
sS'carve'
p4705
I271
sS'unsling'
p4706
I6
sS'overcome'
p4707
I336
sS'ippon'
p4708
I1
sS'hekate'
p4709
I1
sS'cornerback'
p4710
I7
sS'misstate'
p4711
I14
sS'bankroll'
p4712
I8
sS'indulge'
p4713
I93
sS'rhapsodize'
p4714
I2
sS'astop'
p4715
I1
sS'itchy'
p4716
I2
sS'mear'
p4717
I1
sS'wend'
p4718
I12
sS'daydream'
p4719
I22
sS'ewwww'
p4720
I1
sS'mistrust'
p4721
I3
sS'seran-wrap'
p4722
I1
sS'bonk'
p4723
I5
sS'roast'
p4724
I17
sS'hop-hopped'
p4725
I1
sS'bong'
p4726
I1
sS'side'
p4727
I100
sS'bone'
p4728
I2
sS'bond'
p4729
I25
sS'improvise'
p4730
I37
sS'inprove'
p4731
I1
sS'represetn'
p4732
I1
sS'combust'
p4733
I13
sS'bee-line'
p4734
I1
sS'dawn'
p4735
I120
sS'extract'
p4736
I115
sS'jell'
p4737
I4
sS'contend'
p4738
I117
sS'decree'
p4739
I3
sS'videotape'
p4740
I12
sS'quantify'
p4741
I4
sS'content'
p4742
I1
sS'sparkle'
p4743
I268
sS'multiply'
p4744
I28
sS'debit'
p4745
I2
sS'surprise'
p4746
I671
sS'instigate'
p4747
I11
sS'grease'
p4748
I7
sS'whiff'
p4749
I46
sS'revenge'
p4750
I5
sS'bestow'
p4751
I24
sS'struggle'
p4752
I2477
sS'abate'
p4753
I38
sS'veri\xef\xac\x81ed'
p4754
I2
sS'entrap'
p4755
I5
sS'blow-dried'
p4756
I1
sS'chortle'
p4757
I16
sS'scrounge'
p4758
I32
sS'fleck'
p4759
I6
sS'isn'
p4760
I2
sS'domesticate'
p4761
I1
sS'heckle'
p4762
I14
sS'fuckin'
p4763
I3
sS'mass-produced'
p4764
I1
sS'grade'
p4765
I5
sS'hoop'
p4766
I2
sS'yeltsin'
p4767
I1
sS'reassure'
p4768
I164
sS'hoot'
p4769
I61
sS'hook'
p4770
I515
sS'synthesize'
p4771
I1
sS'deplete'
p4772
I15
sS'enumerate'
p4773
I2
sS'radiate'
p4774
I201
sS'ditch'
p4775
I69
sS'hoof'
p4776
I4
sS'hood'
p4777
I12
sS'debase'
p4778
I2
sS'sidle'
p4779
I97
sS'enthral'
p4780
I13
sS'brainwash'
p4781
I3
sS'dwell'
p4782
I58
sS'makeout'
p4783
I1
sS'fiery'
p4784
I1
sS'cross-eye'
p4785
I2
sS'convene'
p4786
I44
sS'regulate'
p4787
I37
sS'bringin'
p4788
I1
sS'hadnt'
p4789
I13
sS'chip-block'
p4790
I1
sS'line-dance'
p4791
I1
sS'distance'
p4792
I65
sS'suffocate.i'
p4793
I1
sS'saxophonist'
p4794
I1
sS'dredge'
p4795
I15
sS'legalize'
p4796
I3
sS'preparation'
p4797
I1
sS'matter'
p4798
I344
sS'espouse'
p4799
I3
sS'exorcise'
p4800
I4
sS'succore'
p4801
I2
sS'jeopardise'
p4802
I1
sS'recommence'
p4803
I11
sS'sailboatsheel'
p4804
I1
sS'quench'
p4805
I38
sS'quish'
p4806
I1
sS'mind'
p4807
I480
sS'reassert'
p4808
I12
sS'ginger'
p4809
I1
sS'seed'
p4810
I1
sS'seem'
p4811
I10580
sS'churn'
p4812
I174
sS'seek'
p4813
I1103
sS'unfasten'
p4814
I122
sS'aviod'
p4815
I1
sS'divulge'
p4816
I20
sS'desist'
p4817
I8
sS'pre-ferr'
p4818
I1
sS'quarterback'
p4819
I9
sS're-hydrate'
p4820
I1
sS'exonerate'
p4821
I9
sS'blacklist'
p4822
I1
sS'mitigate'
p4823
I6
sS'don'
p4824
I215
sS'apperare'
p4825
I1
sS'preheat'
p4826
I1
sS'doc'
p4827
I1
sS'alarm'
p4828
I16
sS'aklso'
p4829
I1
sS'dog'
p4830
I18
sS'digress'
p4831
I9
sS'reappoint'
p4832
I1
sS'laid'
p4833
I1
sS'daquari'
p4834
I1
sS'constrict'
p4835
I44
sS'scotch'
p4836
I3
sS'dot'
p4837
I123
sS'spotclean'
p4838
I1
sS'develep'
p4839
I1
sS'hunger'
p4840
I21
sS'spangle'
p4841
I1
sS'retire'
p4842
I989
sS'head-butted'
p4843
I4
sS'nbspn'
p4844
I2
sS'capitulate'
p4845
I15
sS'f**ked'
p4846
I78
sS'celera'
p4847
I1
sS'explain'
p4848
I1066
sS'tyke'
p4849
I2
sS'cripple'
p4850
I18
sS'sugar'
p4851
I2
sS'integrate'
p4852
I23
sS'hoard'
p4853
I11
sS'un-decorate'
p4854
I1
sS'patter'
p4855
I9
sS'deforest'
p4856
I1
sS'blur'
p4857
I279
sS'stop'
p4858
I15122
sS'perceive'
p4859
I52
sS'coast'
p4860
I102
sS'gooden'
p4861
I1
sS'meditate'
p4862
I35
sS'plumb-bobbed'
p4863
I1
sS'filmmaker'
p4864
I1
sS'crabwalk'
p4865
I1
sS'comply'
p4866
I223
sS'earn'
p4867
I1410
sS'bar'
p4868
I101
sS'braze'
p4869
I1
sS'bay'
p4870
I4
sS'bag'
p4871
I21
sS'troop'
p4872
I21
sS'rival'
p4873
I52
sS'ban'
p4874
I129
sS'enchant'
p4875
I9
sS'bah'
p4876
I1
sS'attest'
p4877
I14
sS'reference'
p4878
I10
sS'imitate'
p4879
I65
sS'prophesy'
p4880
I4
sS're-assemble'
p4881
I1
sS'intertwine'
p4882
I23
sS'subject'
p4883
I7
sS'snuff'
p4884
I30
sS'00'
p4885
I2
sS'duff'
p4886
I1
sS'salt-bake'
p4887
I1
sS'sorta'
p4888
I5
sS'scrap'
p4889
I39
sS'sail'
p4890
I511
sS'disprove'
p4891
I9
sS'bleach'
p4892
I1
sS'out-power'
p4893
I1
sS'juxtapose'
p4894
I1
sS'venture'
p4895
I241
sS'beaten-or'
p4896
I1
sS'bemuse'
p4897
I1
sS'weary'
p4898
I3
sS'excavate'
p4899
I10
sS'laze'
p4900
I17
sS'erdogan'
p4901
I1
sS'nbspcoot'
p4902
I1
sS'eyeball'
p4903
I30
sS'beeline'
p4904
I3
sS'agonise'
p4905
I2
sS'monopolize'
p4906
I10
sS'dislocate'
p4907
I10
sS'repertory'
p4908
I1
sS'sampra'
p4909
I1
sS'uncrease'
p4910
I1
sS'cobble'
p4911
I8
sS'bloomin'
p4912
I1
sS'periscope'
p4913
I1
sS'long-dormant'
p4914
I1
sS'paralyze'
p4915
I16
sS'putt'
p4916
I30
sS'copycat'
p4917
I1
sS'tint'
p4918
I6
sS'backtapp'
p4919
I1
sS'recur'
p4920
I2
sS'braise'
p4921
I3
sS'regenerate'
p4922
I15
sS'erect'
p4923
I185
sS'commission'
p4924
I47
sS'chell'
p4925
I1
sS'replicate'
p4926
I25
sS'remediate'
p4927
I1
sS'interest'
p4928
I20
sS'ouhomer'
p4929
I1
sS'tink'
p4930
I1
sS'chug'
p4931
I103
sS'wheedle'
p4932
I4
sS'mushroom'
p4933
I15
sS'suppress'
p4934
I208
sS'dismiss'
p4935
I322
sS'unthread'
p4936
I1
sS'deepen'
p4937
I294
sS'downplay'
p4938
I25
sS're-wrap'
p4939
I4
sS're-seal'
p4940
I2
sS'tank'
p4941
I12
sS'affirm'
p4942
I35
sS'originate'
p4943
I40
sS'chain-smoke'
p4944
I3
sS'congradulate'
p4945
I1
sS'near'
p4946
I560
sS'suppose'
p4947
I230
sS'convalesce'
p4948
I3
sS'back-handed'
p4949
I2
sS'concertgoer'
p4950
I1
sS're-pressurize'
p4951
I1
sS'mangle'
p4952
I3
sS'anchor'
p4953
I108
sS'spawn'
p4954
I61
sS'cane'
p4955
I2
sS'recuperate'
p4956
I23
sS'womanize'
p4957
I1
sS'remount'
p4958
I21
sS'faker'
p4959
I1
sS'shame'
p4960
I9
sS'cant'
p4961
I36
sS'andlean'
p4962
I1
sS'il'
p4963
I2
sS'jest'
p4964
I1
sS'ight'
p4965
I1
sS'seattle'
p4966
I1
sS'double-dated'
p4967
I2
sS'id'
p4968
I1
sS'disappear'
p4969
I2836
sS'sodder'
p4970
I1
sS'growl'
p4971
I1134
sS'quand'
p4972
I1
sS'short-hop'
p4973
I2
sS'make'
p4974
I34701
sS'ifferon'
p4975
I1
sS'belly'
p4976
I7
sS'matched-in'
p4977
I1
sS'narf'
p4978
I1
sS'evolve'
p4979
I91
sS'elli'
p4980
I1
sS'homeschool'
p4981
I1
sS'stude'
p4982
I1
sS'redevelop'
p4983
I2
sS'kit'
p4984
I3
sS'delight'
p4985
I67
sS'aspirate'
p4986
I1
sS'garlic'
p4987
I1
sS'shoulder-width'
p4988
I1
sS'kid'
p4989
I9
sS'butter'
p4990
I6
sS'romp'
p4991
I24
sS'whicker'
p4992
I3
sS'youre'
p4993
I1
sS'inherit'
p4994
I110
sS'berate'
p4995
I58
sS'high-stepped'
p4996
I4
sS'recombine'
p4997
I1
sS'dis-agreed'
p4998
I1
sS'yel'
p4999
I2
sS'just'
p5000
I1
sS'kinky'
p5001
I1
sS'identife'
p5002
I1
sS'refurnish'
p5003
I1
sS'thelibrary'
p5004
I1
sS'restretch'
p5005
I1
sS'psych'
p5006
I6
sS'yep'
p5007
I1
sS'yer'
p5008
I1
sS'like'
p5009
I3051
sS'nudge'
p5010
I496
sS'short-circuit'
p5011
I5
sS'co-directed'
p5012
I1
sS'wretch'
p5013
I11
sS'relearn'
p5014
I4
sS'defray'
p5015
I2
sS'fufil'
p5016
I1
sS'save'
p5017
I1839
sS'designate'
p5018
I7
sS'opt'
p5019
I282
sS'disect'
p5020
I1
sS'reuse'
p5021
I4
sS're-position'
p5022
I2
sS'ope'
p5023
I1
sS'rotate'
p5024
I228
sS'seconown'
p5025
I1
sS'shoulder'
p5026
I140
sS'half-raise'
p5027
I1
sS'short-wired'
p5028
I1
sS'them-and'
p5029
I1
sS'squander'
p5030
I18
sS'deal'
p5031
I545
sS'repudiate'
p5032
I10
sS'ryou'
p5033
I3
sS'dead'
p5034
I2
sS'revel'
p5035
I161
sS'intern'
p5036
I5
sS'dear'
p5037
I1
sS'offload'
p5038
I3
sS'baby-not'
p5039
I1
sS'hadhead'
p5040
I1
sS'sprawl'
p5041
I221
sS'pail'
p5042
I1
sS'microwave'
p5043
I8
sS'councilor'
p5044
I1
sS'flounder'
p5045
I31
sS'drudge'
p5046
I3
sS'europeanize'
p5047
I1
sS'overcook'
p5048
I2
sS'beget'
p5049
I7
sS'bamboozle'
p5050
I3
sS'eek'
p5051
I1
sS're-perform'
p5052
I1
sS'burn'
p5053
I1577
sS'blackmail'
p5054
I11
sS'renue'
p5055
I1
sS'sift'
p5056
I67
sS're-tighten'
p5057
I1
sS'burp'
p5058
I22
sS'bury'
p5059
I541
sS'conceal'
p5060
I215
sS'allowedscore'
p5061
I1
sS'palisade'
p5062
I1
sS'eye-fuck'
p5063
I2
sS'double-bogeyed'
p5064
I15
sS'marshal'
p5065
I14
sS'unsay'
p5066
I1
sS'nerve'
p5067
I3
sS'motivate'
p5068
I24
sS'down'
p5069
I199
sS'slurp'
p5070
I39
sS'pink'
p5071
I1
sS'chime'
p5072
I148
sS'unseal'
p5073
I10
sS'chitter'
p5074
I2
sS'back-fist'
p5075
I1
sS'initial'
p5076
I7
sS'subdivide'
p5077
I4
sS'approximate'
p5078
I4
sS'lampoon'
p5079
I2
sS'deputize'
p5080
I5
sS'unseat'
p5081
I15
sS'namedafter'
p5082
I1
sS'out-weigh'
p5083
I1
sS'bolivia'
p5084
I1
sS'fork'
p5085
I36
sS'starve'
p5086
I21
sS'form'
p5087
I1259
sS'spike'
p5088
I61
sS'analyse'
p5089
I8
sS'ford'
p5090
I8
sS'31st'
p5091
I1
sS'pole-vault'
p5092
I2
sS'overburden'
p5093
I1
sS'half-fear'
p5094
I1
sS'outsmart'
p5095
I8
sS'fort'
p5096
I1
sS'boomerang'
p5097
I1
sS'daddy'
p5098
I2
sS'temper'
p5099
I8
sS'delete'
p5100
I51
sS'diagnose'
p5101
I48
sS'belove'
p5102
I1
sS'shin'
p5103
I3
sS'shim'
p5104
I3
sS'toss'
p5105
I2826
sS'sidestep'
p5106
I158
sS'do-cleanse'
p5107
I1
sS'thunk'
p5108
I14
sS'scrawl'
p5109
I54
sS'revitalize'
p5110
I8
sS'ship'
p5111
I79
sS'addle'
p5112
I1
sS'shit'
p5113
I29
sS'graft'
p5114
I1
sS'lifelike'
p5115
I1
sS'discriminate'
p5116
I9
sS'excel'
p5117
I97
sS'venison'
p5118
I1
sS'congeal'
p5119
I14
sS'wewere'
p5120
I1
sS'holly'
p5121
I1
sS'clinge'
p5122
I2
sS'hangin'
p5123
I1
sS'inflect'
p5124
I1
sS'unturn'
p5125
I1
sS'sling'
p5126
I339
sS're-evaluated'
p5127
I1
sS'conine'
p5128
I1
sS'slink'
p5129
I111
sS'diet'
p5130
I3
sS'fell'
p5131
I10
sS'award'
p5132
I137
sS'stoke'
p5133
I73
sS'derail'
p5134
I13
sS'assume'
p5135
I752
sS'abracadabrae'
p5136
I1
sS're-claimed'
p5137
I1
sS'overdub'
p5138
I1
sS'reroute'
p5139
I3
sS'meander'
p5140
I125
sS'decelerate'
p5141
I8
sS'befriend'
p5142
I29
sS'revoke'
p5143
I7
sS'untwist'
p5144
I5
sS'relieve'
p5145
I248
sS'peruse'
p5146
I50
sS'invent'
p5147
I140
sS'skii'
p5148
I1
sS'muss'
p5149
I10
sS'redouble'
p5150
I26
sS'forecast'
p5151
I16
sS'skin'
p5152
I21
sS'ovre'
p5153
I1
sS'broughtthem'
p5154
I1
sS'milk'
p5155
I37
sS'infantilize'
p5156
I1
sS'agleam'
p5157
I1
sS'misread'
p5158
I10
sS'depend'
p5159
I178
sS'flaherty'
p5160
I2
sS'summersault'
p5161
I1
sS'thake'
p5162
I1
sS'swoon'
p5163
I37
sS'father'
p5164
I20
sS'countdown'
p5165
I1
sS'amaze'
p5166
I98
sS'swoop'
p5167
I262
sS'overproduce'
p5168
I2
sS'unburden'
p5169
I4
sS'd/led'
p5170
I1
sS'encircle'
p5171
I162
sS'string'
p5172
I53
sS'reconvene'
p5173
I15
sS'snapmare'
p5174
I1
sS'nationalize'
p5175
I5
sS'mince'
p5176
I9
sS'almost-almost-leap'
p5177
I1
sS'dinghy'
p5178
I1
sS'decamp'
p5179
I10
sS'lynch'
p5180
I1
sS'jettison'
p5181
I27
sS'kindda'
p5182
I1
sS'materialize'
p5183
I194
sS'dim'
p5184
I126
sS'din'
p5185
I1
sS'elevate'
p5186
I95
sS'die'
p5187
I3539
sS'economize'
p5188
I1
sS'dig'
p5189
I1713
sS'superstardom'
p5190
I1
sS'grimace'
p5191
I537
sS'force-march'
p5192
I1
sS'dip'
p5193
I801
sS'round'
p5194
I833
sS'shave'
p5195
I205
sS'hand-feed'
p5196
I1
sS'worm'
p5197
I19
sS'over-fill'
p5198
I1
sS'slake'
p5199
I7
sS'jawbon'
p5200
I1
sS'unbar'
p5201
I2
sS'sheng'
p5202
I1
sS'favour'
p5203
I10
sS'fillet'
p5204
I9
sS'reunite'
p5205
I14
sS'suspect'
p5206
I357
sS'ollywoodland'
p5207
I1
sS'dwarf'
p5208
I31
sS'dweller'
p5209
I1
sS'wail'
p5210
I313
sS'clerk'
p5211
I12
sS'overwinter'
p5212
I1
sS'detest'
p5213
I26
sS'decipher'
p5214
I66
sS'stem'
p5215
I142
sS'wait'
p5216
I8047
sS'box'
p5217
I17
sS'institute'
p5218
I34
sS'shift'
p5219
I2052
sS'bot'
p5220
I1
sS'bow'
p5221
I799
sS'tromp'
p5222
I14
sS'relock'
p5223
I11
sS'dither'
p5224
I10
sS'boo'
p5225
I87
sS'bob'
p5226
I216
sS'body-slam'
p5227
I4
sS'rediscover'
p5228
I34
sS'massage'
p5229
I203
sS'bog'
p5230
I21
sS'treasure'
p5231
I6
sS'elect'
p5232
I122
sS'anni'
p5233
I1
sS'verge'
p5234
I6
sS'surmount'
p5235
I9
sS'panhandle'
p5236
I1
sS'transplant'
p5237
I1
sS'thro'
p5238
I1
sS'ayn'
p5239
I1
sS'saki'
p5240
I1
sS'backcheck'
p5241
I2
sS'flatline'
p5242
I1
sS'perk'
p5243
I88
sS'tare'
p5244
I1
sS'dude'
p5245
I5
sS'perm'
p5246
I1
sS'out-macho'
p5247
I1
sS'somersault'
p5248
I37
sS'ahhh'
p5249
I3
sS'encode'
p5250
I3
sS'sharpen'
p5251
I97
sS'swagger'
p5252
I25
sS'oof'
p5253
I1
sS'cremate'
p5254
I3
sS'ooh'
p5255
I16
sS'2.89'
p5256
I1
sS'fly'
p5257
I4457
sS'demolish'
p5258
I37
sS're-directed'
p5259
I1
sS'impel'
p5260
I2
sS'sour'
p5261
I52
sS'mmmed'
p5262
I1
sS'switchback'
p5263
I1
sS'arrive'
p5264
I4249
sS'claim'
p5265
I950
sS'high-kicked'
p5266
I1
sS'immortalize'
p5267
I4
sS'reflector'
p5268
I1
sS'predict'
p5269
I153
sS'fuck'
p5270
I280
sS'sample'
p5271
I17
sS'bakufu'
p5272
I1
sS'shink'
p5273
I1
sS'craze'
p5274
I6
sS'normalize'
p5275
I5
sS'purr'
p5276
I156
sS'high-kick'
p5277
I2
sS'traipse'
p5278
I25
sS'tilt'
p5279
I51
sS'pina'
p5280
I1
sS'premade'
p5281
I1
sS'ping'
p5282
I72
sS'pine'
p5283
I279
sS'till'
p5284
I6
sS'belarussian'
p5285
I1
sS'emotionless'
p5286
I2
sS'skater'
p5287
I1
sS'tile'
p5288
I8
sS'baby-step'
p5289
I1
sS'sworl'
p5290
I1
sS'pint'
p5291
I1
sS'map'
p5292
I24
sS'mar'
p5293
I54
sS'mat'
p5294
I11
sS'max'
p5295
I6
sS'journale'
p5296
I1
sS'cease'
p5297
I335
sS'unfire'
p5298
I1
sS'mad'
p5299
I2
sS'!!!'
p5300
I10
sS'partway'
p5301
I7
sS'grow'
p5302
I4694
sS'man'
p5303
I67
sS'relinquish'
p5304
I64
sS'neck'
p5305
I2
sS'perambulate'
p5306
I1
sS'purify'
p5307
I4
sS'disembowel'
p5308
I2
sS'q'
p5309
I1
sS'cascade'
p5310
I111
sS'switch'
p5311
I1044
sS'patronise'
p5312
I2
sS'deposit'
p5313
I209
sS'deceive'
p5314
I12
sS'unleash'
p5315
I232
sS'flip-flopped'
p5316
I2
sS'longhand'
p5317
I1
sS'bungle'
p5318
I13
sS'talk'
p5319
I4199
sS'uncork'
p5320
I50
sS'lsd'
p5321
I1
sS'mutiny'
p5322
I2
sS'shield'
p5323
I393
sS're-sign'
p5324
I9
sS'ad-lib'
p5325
I1
sS'in-bounded'
p5326
I2
sS'recoup'
p5327
I9
sS'shake'
p5328
I6178
sS'equip'
p5329
I9
sS'sunfish'
p5330
I1
sS'reportunderage'
p5331
I1
sS'group'
p5332
I8
sS'thank'
p5333
I1947
sS'satye'
p5334
I1
sS'bedbug'
p5335
I1
sS'stir-fried'
p5336
I2
sS'maim'
p5337
I5
sS'mail'
p5338
I79
sS'finance'
p5339
I65
sS'bein'
p5340
I3
sS'couldutter'
p5341
I1
sS'shatter'
p5342
I455
sS'back-flip'
p5343
I1
sS'tucker'
p5344
I2
sS'moron'
p5345
I2
sS'bullshit'
p5346
I3
sS'possess'
p5347
I284
sS'outweigh'
p5348
I35
sS'swan-dived'
p5349
I1
sS'fudge'
p5350
I24
sS'kabonge'
p5351
I1
sS'promulgate'
p5352
I6
sS'rock'
p5353
I964
sS'hijack'
p5354
I24
sS'agin'
p5355
I1
sS'harken'
p5356
I1
sS'bookshop'
p5357
I1
sS'gird'
p5358
I3
sS'unclasp'
p5359
I51
sS'aloof'
p5360
I1
sS'giveth'
p5361
I4
sS'relive'
p5362
I51
sS'olwen'
p5363
I1
sS'stitch'
p5364
I42
sS'undulate'
p5365
I44
sS'midfield'
p5366
I3
sS'priest'
p5367
I2
sS'co-write'
p5368
I4
sS'pock'
p5369
I3
sS'unlimber'
p5370
I1
sS'blubber'
p5371
I5
sS'dominate'
p5372
I386
sS'correct'
p5373
I107
sS'duckwalk'
p5374
I2
sS'self-determination'
p5375
I1
sS'smudge'
p5376
I28
sS'baptize'
p5377
I2
sS'kovat'
p5378
I1
sS'jaywalk'
p5379
I3
sS'ord'
p5380
I1
sS'ore'
p5381
I1
sS'orb'
p5382
I2
sS'gott'
p5383
I1
sS'ora'
p5384
I1
sS'advance'
p5385
I698
sS'waiter'
p5386
I1
sS'dewater'
p5387
I1
sS'bottle-fed'
p5388
I1
sS'unclick'
p5389
I2
sS'corrugate'
p5390
I1
sS'yess'
p5391
I1
sS'think'
p5392
I12105
sS'frequent'
p5393
I16
sS'malkin'
p5394
I1
sS'commercialize'
p5395
I5
sS'untwine'
p5396
I4
sS'disburse'
p5397
I5
sS'rachet'
p5398
I1
sS'sat-in'
p5399
I1
sS'carry'
p5400
I3972
sS'eventhough'
p5401
I1
sS'arch'
p5402
I746
sS'parallel'
p5403
I22
sS'moisture'
p5404
I1
sS'daunt'
p5405
I1
sS're-emerge'
p5406
I17
sS'repatriate'
p5407
I2
sS'broadcast'
p5408
I73
sS'did-be'
p5409
I1
sS'shoulder-tackle'
p5410
I1
sS'butt'
p5411
I6
sS'embraceable'
p5412
I1
sS'cleanse'
p5413
I37
sS'infiltrate'
p5414
I37
sS'deafen'
p5415
I25
sS'set-up'
p5416
I2
sS're-cross'
p5417
I1
sS'kn-know'
p5418
I1
sS'side-eye'
p5419
I1
sS'gigantic'
p5420
I1
sS'proofread'
p5421
I3
sS'lullaby'
p5422
I1
sS'lick'
p5423
I1358
sS'capsize'
p5424
I16
sS'kermit'
p5425
I1
sS'tantalize'
p5426
I25
sS'appreciate'
p5427
I302
sS'dash'
p5428
I611
sS'have-snap'
p5429
I1
sS'sulk'
p5430
I39
sS'chika'
p5431
I1
sS'co-organized'
p5432
I1
sS'pebble'
p5433
I11
sS'third-wavy'
p5434
I1
sS'squat'
p5435
I203
sS'wetly'
p5436
I1
sS'clunk'
p5437
I18
sS'e-met'
p5438
I1
sS'cantor'
p5439
I1
sS'double-click'
p5440
I3
sS'neeeeed'
p5441
I1
sS'channel'
p5442
I72
sS'pain'
p5443
I3
sS'trace'
p5444
I623
sS'track'
p5445
I398
sS'cheesecake'
p5446
I1
sS'zigzag'
p5447
I49
sS'whizz'
p5448
I3
sS're-button'
p5449
I2
sS'assault'
p5450
I99
sS'barrage'
p5451
I5
sS'billow'
p5452
I64
sS'pair'
p5453
I29
sS'recognice'
p5454
I1
sS'spectate'
p5455
I1
sS'scowl'
p5456
I459
sS're-apply'
p5457
I3
sS'thot'
p5458
I1
sS'shop'
p5459
I87
sS'fly-fish'
p5460
I2
sS'wnt'
p5461
I1
sS'accessorize'
p5462
I8
sS'show'
p5463
I5595
sS'salon'
p5464
I1
sS'rep.'
p5465
I2
sS'shoe'
p5466
I2
sS'disunite'
p5467
I1
sS'estop'
p5468
I1
sS'corner'
p5469
I57
sS'high-tailed'
p5470
I1
sS'shoo'
p5471
I83
sS'fend'
p5472
I107
sS'dice'
p5473
I10
sS're-emerged'
p5474
I7
sS'plume'
p5475
I8
sS'dick'
p5476
I2
sS'plumb'
p5477
I8
sS're-create'
p5478
I9
sS'manoeuvre'
p5479
I26
sS'black'
p5480
I49
sS'dispise'
p5481
I1
sS'plump'
p5482
I12
sS'get'
p5483
I42605
sS'had19'
p5484
I1
sS'stomp'
p5485
I497
sS'grubstake'
p5486
I1
sS'resistan'
p5487
I1
sS'cherry-pick'
p5488
I1
sS'wheeze'
p5489
I89
sS'gibber'
p5490
I3
sS'moviegoer'
p5491
I1
sS'gel'
p5492
I3
sS'beseech'
p5493
I9
sS'colossus'
p5494
I1
sS'yield'
p5495
I209
sS'ould'
p5496
I1
sS'jumper'
p5497
I2
sS'sear'
p5498
I138
sS'fellowshipp'
p5499
I1
sS'wike'
p5500
I1
sS'fixate'
p5501
I12
sS'seat'
p5502
I111
sS'seam'
p5503
I4
sS'seal'
p5504
I297
sS'reaccelerate'
p5505
I1
sS'?!?!?'
p5506
I1
sS'adjudge'
p5507
I1
sS'wonder'
p5508
I2225
sS'bangsar'
p5509
I1
sS'limber'
p5510
I2
sS'did-what'
p5511
I1
sS'label'
p5512
I54
sS'gage'
p5513
I2
sS'pump'
p5514
I515
sS'downriver'
p5515
I1
sS'across'
p5516
I1
sS'satiate'
p5517
I6
sS'loofah'
p5518
I1
sS'slingshot'
p5519
I1
sS'tut'
p5520
I5
sS'timmy'
p5521
I1
sS'dome'
p5522
I1
sS'countenance'
p5523
I43
sS'jo'
p5524
I1
sS'whisperer'
p5525
I1
sS'je'
p5526
I1
sS'nine-win'
p5527
I1
sS'tug'
p5528
I1238
sS'stinker'
p5529
I1
sS'tuck'
p5530
I1106
sS'fulminate'
p5531
I1
sS'dedicate'
p5532
I56
sS'hedid'
p5533
I1
sS'tour'
p5534
I215
sS'jovial'
p5535
I1
sS'tout'
p5536
I35
sS'remake'
p5537
I18
sS'improv'
p5538
I1
sS'about-face'
p5539
I1
sS'spank'
p5540
I41
sS'overhydrate'
p5541
I1
sS'multifacet'
p5542
I1
sS'conscribe'
p5543
I1
sS'cancel'
p5544
I225
sS'guesstimate'
p5545
I2
sS'intrude'
p5546
I28
sS'caricature'
p5547
I6
sS'half-spilled'
p5548
I1
sS'folow'
p5549
I3
sS'wobble'
p5550
I269
sS'certify'
p5551
I5
sS'morganslump'
p5552
I1
sS'mark'
p5553
I541
sS'workshop'
p5554
I1
sS'spiderweb'
p5555
I1
sS'mary'
p5556
I1
sS'knuckle-walk'
p5557
I1
sS'squash'
p5558
I13
sS'acupuncture'
p5559
I1
sS'wake'
p5560
I2620
sS'overdose'
p5561
I5
sS'carousell'
p5562
I1
sS'sound'
p5563
I2557
sS'dedide'
p5564
I1
sS'invigorate'
p5565
I15
sS'slumber'
p5566
I12
sS'legitimise'
p5567
I1
sS'compile'
p5568
I18
sS'ratchet'
p5569
I14
sS'eave'
p5570
I1
sS'stepfather'
p5571
I1
sS'cock'
p5572
I375
sS'bop'
p5573
I9
sS'hargrove'
p5574
I1
sS'bathe'
p5575
I62
sS'winless'
p5576
I1
sS'strain'
p5577
I404
sS'double-majored'
p5578
I1
sS'incubate'
p5579
I3
sS'dawah'
p5580
I1
sS'hot-glue'
p5581
I1
sS'par'
p5582
I25
sS'pat'
p5583
I729
sS'doctor'
p5584
I5
sS'pay'
p5585
I2920
sS'lave'
p5586
I29
sS'woodland'
p5587
I1
sS'demur'
p5588
I31
sS'lava'
p5589
I1
sS'speech'
p5590
I1
sS'rebait'
p5591
I1
sS'cotton'
p5592
I2
sS'pal'
p5593
I1
sS'pan'
p5594
I83
sS'spring-clean'
p5595
I1
sS'exhaust'
p5596
I52
sS'oil'
p5597
I13
sS'assist'
p5598
I264
sS'munch'
p5599
I75
sS'cauterize'
p5600
I7
sS'eelle'
p5601
I2
sS'sleepiness'
p5602
I1
sS'inbetween'
p5603
I1
sS'lemon'
p5604
I1
sS'mariucci'
p5605
I1
sS'weave'
p5606
I387
sS'drain'
p5607
I280
sS'suffuse'
p5608
I19
sS're-holster'
p5609
I4
sS'spidermann'
p5610
I1
sS'solve'
p5611
I160
sS'bottle'
p5612
I27
sS'parody'
p5613
I3
sS'outrebound'
p5614
I53
sS'fume'
p5615
I126
sS'imprint'
p5616
I15
sS'gange'
p5617
I1
sS'flavor'
p5618
I7
sS'mcdonald'
p5619
I6
sS'forgo'
p5620
I11
sS'sproinge'
p5621
I1
sS'one-on-one'
p5622
I1
sS'pile'
p5623
I410
sS'eviscerate'
p5624
I6
sS'be-spell'
p5625
I1
sS'grip'
p5626
I1605
sS'grit'
p5627
I328
sS'mop'
p5628
I118
sS'mow'
p5629
I63
sS'chainsaw'
p5630
I1
sS'chest-bumped'
p5631
I2
sS'moo'
p5632
I6
sS"n'tchew"
p5633
I1
sS'mob'
p5634
I20
sS'swatch'
p5635
I1
sS'implicate'
p5636
I5
sS'grin'
p5637
I1411
sS'squalle'
p5638
I4
sS'militarize'
p5639
I1
sS'terrorize'
p5640
I18
sS'anonther'
p5641
I1
sS'bear-she'
p5642
I1
sS'chamber'
p5643
I8
sS're-seed'
p5644
I1
sS'nose'
p5645
I49
sS'rcme'
p5646
I1
sS'nosh'
p5647
I2
sS'fulfil'
p5648
I40
sS'afflict'
p5649
I8
sS'doll'
p5650
I2
sS're-enlisted'
p5651
I5
sS'commandeer'
p5652
I28
sS'ascend'
p5653
I236
sS'dole'
p5654
I23
sS'army-crawl'
p5655
I1
sS'madu0a'
p5656
I1
sS'erase'
p5657
I199
sS'watched-love'
p5658
I1
sS'tatoo'
p5659
I3
sS'undock'
p5660
I1
sS'spasm'
p5661
I60
sS'herald'
p5662
I32
sS'confirm'
p5663
I388
sS'pioneer'
p5664
I23
sS'escort'
p5665
I305
sS'inject'
p5666
I129
sS'gladden'
p5667
I1
sS'pokecheck'
p5668
I3
sS'moderate'
p5669
I11
sS'knife'
p5670
I24
sS'olof'
p5671
I1
sS'breastfeed'
p5672
I3
sS'broker'
p5673
I18
sS'water-skied'
p5674
I2
sS'recraft'
p5675
I2
sS'giggle'
p5676
I591
sS'depositt'
p5677
I1
sS'tease'
p5678
I494
sS'roar'
p5679
I1068
sS'island'
p5680
I1
sS'teash'
p5681
I1
sS'fringe'
p5682
I6
sS'evah'
p5683
I1
sS'solidify'
p5684
I57
sS'roam'
p5685
I243
sS'hadfound'
p5686
I1
sS'emerchant'
p5687
I1
sS'dagger'
p5688
I1
sS'straight-armed'
p5689
I2
sS'ping-ponged'
p5690
I2
sS'splint'
p5691
I5
sS'harness'
p5692
I12
sS'whiten'
p5693
I9
sS'un-tuck'
p5694
I1
sS'strip'
p5695
I536
sS'skillet'
p5696
I1
sS'superbia'
p5697
I2
sS'vaporize'
p5698
I10
sS'out-bowl'
p5699
I1
sS'1:25'
p5700
I1
sS'madden'
p5701
I4
sS'decode'
p5702
I6
sS'beta-test'
p5703
I1
sS'outmatch'
p5704
I4
sS'appriciate'
p5705
I1
sS'trey'
p5706
I1
sS'spicy'
p5707
I5
sS'remix'
p5708
I1
sS'shroud'
p5709
I66
sS'hiccup'
p5710
I28
sS'gore'
p5711
I56
sS'defoliate'
p5712
I1
sS'spice'
p5713
I3
sS'annihilate'
p5714
I8
sS'reapply'
p5715
I16
sS'eschew'
p5716
I4
sS'grouch'
p5717
I2
sS'rockies_claimed'
p5718
I1
sS'embed'
p5719
I17
sS'roughhouse'
p5720
I1
sS'censor'
p5721
I9
sS'hand-searched'
p5722
I1
sS'examine'
p5723
I800
sS'deem'
p5724
I76
sS'file'
p5725
I684
sS'deed'
p5726
I1
sS'hound'
p5727
I26
sS'film'
p5728
I27
sS'fill'
p5729
I3607
sS'repent'
p5730
I6
sS'field'
p5731
I185
sS'groundout'
p5732
I1
sS'prise'
p5733
I18
sS'hand-painted'
p5734
I1
sS'shelter'
p5735
I4
sS'false-cast'
p5736
I1
sS'family\\/style'
p5737
I1
sS'her-do'
p5738
I1
sS'scarper'
p5739
I2
sS'democratize'
p5740
I2
sS'tackle'
p5741
I509
sS'revolve'
p5742
I50
sS'cold-called'
p5743
I2
sS'sneeze'
p5744
I60
sS'delineate'
p5745
I4
sS'unload'
p5746
I58
sS'unclench'
p5747
I29
sS'conceed'
p5748
I1
sS'burrow'
p5749
I62
sS'u'
p5750
I1
sS'silk-screen'
p5751
I1
sS'alright'
p5752
I16
sS'wanted.and'
p5753
I1
sS'emenate'
p5754
I1
sS'represent'
p5755
I390
sS'jet-dry'
p5756
I1
sS'forget'
p5757
I1206
sS'founder'
p5758
I13
sS'remeber'
p5759
I1
sS'rebind'
p5760
I28
sS'zing'
p5761
I22
sS'commute'
p5762
I12
sS'implement'
p5763
I77
sS'sky-dive'
p5764
I1
sS'redecorate'
p5765
I5
sS'hasprove'
p5766
I1
sS'crimson'
p5767
I1
sS'^'
p5768
I1
sS'speaketh'
p5769
I1
sS'bestir'
p5770
I2
sS'together-then'
p5771
I1
sS'flight-tested'
p5772
I1
sS'wiretap'
p5773
I3
sS'scout'
p5774
I88
sS'scour'
p5775
I114
sS'fall'
p5776
I12571
sS'bottleneck'
p5777
I1
sS'wsa'
p5778
I1
sS'dampen'
p5779
I67
sS'triangulate'
p5780
I1
sS're-indict'
p5781
I1
sS'enrapture'
p5782
I5
sS'baby-sits'
p5783
I1
sS'cannonade'
p5784
I1
sS'clinch'
p5785
I139
sS'outwork'
p5786
I3
sS'gnarl'
p5787
I2
sS'zero'
p5788
I71
sS'disapoint'
p5789
I1
sS'further'
p5790
I17
sS'grabe'
p5791
I2
sS'misrepresent'
p5792
I8
sS'ribbon'
p5793
I1
sS'dial'
p5794
I478
sS'emboss'
p5795
I7
sS'abe'
p5796
I3
sS'carcass'
p5797
I2
sS'verbalize'
p5798
I3
sS'stoop'
p5799
I186
sS'abt'
p5800
I1
sS'concider'
p5801
I1
sS'tribute'
p5802
I1
sS"c'mon"
p5803
I33
sS'mull'
p5804
I41
sS'twang'
p5805
I5
sS'ingratiate'
p5806
I4
sS'mule'
p5807
I2
sS'hadda'
p5808
I2
sS'search'
p5809
I1596
sS'luxuriate'
p5810
I14
sS'scurry'
p5811
I431
sS'spotlight'
p5812
I6
sS'chipper'
p5813
I1
sS'summate'
p5814
I2
sS'wolf-whistled'
p5815
I2
sS'whereupon'
p5816
I1
sS'y\xe2\x80\x99'
p5817
I1
sS'narrow'
p5818
I374
sS'fatten'
p5819
I2
sS'never-ever'
p5820
I1
sS'authorize'
p5821
I55
sS'alphabetize'
p5822
I1
sS'five-putted'
p5823
I1
sS'establish'
p5824
I474
sS'crake'
p5825
I3
sS'superimpose'
p5826
I1
sS'eye'
p5827
I674
sS'score'
p5828
I3969
sS'composure'
p5829
I2
sS'reempty'
p5830
I1
sS'codify'
p5831
I2
sS'trounce'
p5832
I15
sS'puke'
p5833
I74
sS'trise'
p5834
I1
sS'splash'
p5835
I513
sS'jive'
p5836
I3
sS'raft'
p5837
I1
sS'snuggly'
p5838
I1
sS'mvp'
p5839
I1
sS're-take'
p5840
I4
sS'dematerialize'
p5841
I11
sS'mill'
p5842
I60
sS'openmouthe'
p5843
I1
sS'aglow'
p5844
I3
sS'was-in'
p5845
I2
sS'patrole'
p5846
I1
sS'cluster'
p5847
I7
sS'disinigrate'
p5848
I1
sS'recall'
p5849
I1110
sS'reconstructive'
p5850
I1
sS'was-if'
p5851
I1
sS'dew'
p5852
I1
sS'remain'
p5853
I4117
sS'power-shift'
p5854
I1
sS'half-cover'
p5855
I1
sS'abandon'
p5856
I504
sS'dea'
p5857
I1
sS'heran'
p5858
I1
sS'compare'
p5859
I185
sS'buttress'
p5860
I9
sS'quick-time'
p5861
I1
sS'gravely'
p5862
I1
sS'share'
p5863
I1312
sS'shard'
p5864
I1
sS'socal'
p5865
I1
sS'wal-mart'
p5866
I3
sS'attain'
p5867
I19
sS'tip-toe'
p5868
I22
sS'freckle'
p5869
I7
sS'stil'
p5870
I5
sS're-read'
p5871
I14
sS'comfort'
p5872
I270
sS'steppedinside'
p5873
I1
sS'staredat'
p5874
I1
sS'mve'
p5875
I1
sS'bleat'
p5876
I8
sS'alound'
p5877
I1
sS'blacken'
p5878
I25
sS'interpose'
p5879
I1
sS'blacker'
p5880
I1
sS'salaam'
p5881
I1
sS'reclassify'
p5882
I2
sS'bloom'
p5883
I120
sS'lipread'
p5884
I1
sS'coax'
p5885
I156
sS'coat'
p5886
I112
sS'paw'
p5887
I68
sS'blunder'
p5888
I25
sS'mislead'
p5889
I20
sS'co-exist'
p5890
I5
sS'waller-raise'
p5891
I1
sS'evanesce'
p5892
I1
sS'pleasure'
p5893
I24
sS'pay/donate'
p5894
I1
sS're-interviewed'
p5895
I2
sS'serenade'
p5896
I12
sS'displease'
p5897
I2
sS'materialise'
p5898
I16
sS'dough'
p5899
I1
sS'wisent'
p5900
I1
sS'suffer'
p5901
I850
sS'prevaricate'
p5902
I1
sS'winger'
p5903
I1
sS'fissure'
p5904
I1
sS'thought-speak'
p5905
I1
sS'baah'
p5906
I1
sS'smake'
p5907
I1
sS'redraft'
p5908
I1
sS'diasappear'
p5909
I1
sS'pad'
p5910
I169
sS'clamor'
p5911
I33
sS'goof'
p5912
I10
sS'him-and'
p5913
I1
sS're-route'
p5914
I1
sS'detour'
p5915
I26
sS'magick'
p5916
I1
sS'compound'
p5917
I25
sS'detach'
p5918
I59
sS'complain'
p5919
I581
sS'restrict'
p5920
I15
sS'huddle'
p5921
I434
sS'mothermarry'
p5922
I1
sS'malate'
p5923
I1
sS'suprise'
p5924
I5
sS'evade'
p5925
I118
sS'perkin'
p5926
I1
sS'condamn'
p5927
I1
sS'writeon'
p5928
I1
sS'clamp'
p5929
I374
sS'harm'
p5930
I65
sS'hark'
p5931
I2
sS'house'
p5932
I156
sS'fish'
p5933
I254
sS'comin'
p5934
I1
sS'winnow'
p5935
I7
sS'connect'
p5936
I333
sS'fist'
p5937
I93
sS'ripple'
p5938
I271
sS'orient'
p5939
I29
sS'harp'
p5940
I5
sS'flower'
p5941
I2
sS'strobe-light'
p5942
I1
sS'avenge'
p5943
I19
sS'print'
p5944
I150
sS'sloak'
p5945
I1
sS'bully'
p5946
I42
sS'ask/discuss'
p5947
I1
sS'pin-wheel'
p5948
I2
sS'decompress'
p5949
I1
sS"n'tknow"
p5950
I1
sS'recast'
p5951
I4
sS'carless'
p5952
I1
sS'omit'
p5953
I20
sS'taht'
p5954
I1
sS'predate'
p5955
I11
sS'wither'
p5956
I45
sS'corkscrew'
p5957
I3
sS'coanchor'
p5958
I1
sS'trickle'
p5959
I477
sS'dissatisfy'
p5960
I2
sS'dont'
p5961
I32
sS'perturb'
p5962
I8
sS'vukovar'
p5963
I1
sS'desipse'
p5964
I1
sS'suddenlyseem'
p5965
I1
sS'cade'
p5966
I14
sS'shoal'
p5967
I1
sS'hand-crank'
p5968
I1
sS'donk'
p5969
I1
sS'wager'
p5970
I10
sS'jabber'
p5971
I10
sS'disown'
p5972
I7
sS'unstock'
p5973
I1
sS'redefect'
p5974
I1
sS'divorce'
p5975
I116
sS'revive'
p5976
I108
sS'construct'
p5977
I37
sS'paint'
p5978
I519
sS'powderize'
p5979
I1
sS'smoothen'
p5980
I1
sS'stroak'
p5981
I1
sS'lease'
p5982
I35
sS'catapult'
p5983
I79
sS'bumble'
p5984
I10
sS'pare'
p5985
I4
sS'needle'
p5986
I10
sS'park'
p5987
I1172
sS'part'
p5988
I842
sS'jump-started'
p5989
I5
sS'differentiate'
p5990
I16
sS'keyed-in'
p5991
I1
sS'believe'
p5992
I1755
sS'oscillate'
p5993
I7
sS'commiserate'
p5994
I11
sS'ogress'
p5995
I1
sS'reenlist'
p5996
I1
sS'greet-but'
p5997
I1
sS'air-dry'
p5998
I1
sS'sedate'
p5999
I7
sS'bawl'
p6000
I29
sS'sensedthat'
p6001
I1
sS'declare'
p6002
I476
sS'flitter'
p6003
I9
sS'swerve'
p6004
I275
sS'outta'
p6005
I2
sS'prefigure'
p6006
I1
sS'orderd'
p6007
I1
sS'cept'
p6008
I2
sS'left-handed'
p6009
I1
sS'\xef\xac\x82ushed'
p6010
I1
sS'murder'
p6011
I11
sS'twiddle'
p6012
I13
sS'half-peel'
p6013
I1
sS'dismember'
p6014
I9
sS'blanch'
p6015
I31
sS'refute'
p6016
I8
sS'couch'
p6017
I3
sS'build'
p6018
I1656
sS'whereever'
p6019
I1
sS'flute'
p6020
I1
sS'chart'
p6021
I23
sS'charm'
p6022
I23
sS'outpoint'
p6023
I2
sS'fluctuate'
p6024
I18
sS'smoosh'
p6025
I3
sS'hand-counted'
p6026
I1
sS'mock-die'
p6027
I1
sS'culberson'
p6028
I1
sS'saturate'
p6029
I29
sS'ko'
p6030
I1
sS'organise'
p6031
I15
sS'squelch'
p6032
I31
sS'weigh'
p6033
I439
sS'daresay'
p6034
I1
sS'bradgate'
p6035
I1
sS'fint'
p6036
I1
sS'converge'
p6037
I79
sS'brush-stroke'
p6038
I1
sS'biodegrade'
p6039
I1
sS'race-walk'
p6040
I3
sS'chock'
p6041
I6
sS'fine'
p6042
I35
sS'find'
p6043
I19919
sS'w/refried'
p6044
I1
sS'ruin'
p6045
I196
sS'bull-rush'
p6046
I1
sS'sanitize'
p6047
I4
sS'override'
p6048
I45
sS'down-shift'
p6049
I2
sS'weve'
p6050
I2
sS'devastate'
p6051
I29
sS'batten'
p6052
I5
sS'backstopp'
p6053
I2
sS'express'
p6054
I320
sS'ferret'
p6055
I9
sS'cheapen'
p6056
I2
sS'batter'
p6057
I64
sS'breast'
p6058
I4
sS're-acquired'
p6059
I1
sS'cumulate'
p6060
I1
sS'silk'
p6061
I1
sS'sill'
p6062
I1
sS'restart'
p6063
I50
sS'huff'
p6064
I152
sS'elapse'
p6065
I1
sS'resolve'
p6066
I137
sS'warmup'
p6067
I1
sS'relize'
p6068
I1
sS'remove'
p6069
I2807
sS'supercede'
p6070
I1
sS'unloop'
p6071
I1
sS'vine'
p6072
I1
sS'satstraight'
p6073
I1
sS'arouse'
p6074
I94
sS'manly'
p6075
I1
sS'tender'
p6076
I10
sS'double-crossed'
p6077
I1
sS'fang'
p6078
I2
sS'marinate'
p6079
I7
sS'equivocate'
p6080
I1
sS'please'
p6081
I712
sS'abrade'
p6082
I11
sS'donate'
p6083
I162
sS'relpy'
p6084
I1
sS'complement'
p6085
I45
sS'unrol'
p6086
I1
sS're-gag'
p6087
I1
sS'scuttle'
p6088
I91
sS'encapsulate'
p6089
I8
sS'reverse'
p6090
I294
sS'scythe'
p6091
I4
sS'percieve'
p6092
I1
sS'alot'
p6093
I2
sS'mean'
p6094
I2039
sS'confabulate'
p6095
I1
sS'consume'
p6096
I219
sS'point'
p6097
I3206
sS'dwindle'
p6098
I74
sS'smother'
p6099
I117
sS'tippy-toed'
p6100
I1
sS're-cuff'
p6101
I1
sS'toddle'
p6102
I16
sS'civilize'
p6103
I2
sS'pin-ball'
p6104
I1
sS'dovetail'
p6105
I2
sS'create'
p6106
I1555
sS'underage'
p6107
I1
sS'rety'
p6108
I14
sS'meant-he'
p6109
I1
sS'gas'
p6110
I22
sS'gap'
p6111
I4
sS'understand'
p6112
I1750
sS'gag'
p6113
I139
sS'chatter'
p6114
I87
sS'gab'
p6115
I8
sS'straiten'
p6116
I2
sS'pierce'
p6117
I397
sS'unify'
p6118
I8
sS'bill'
p6119
I26
sS'tolerate'
p6120
I73
sS'pinch-run'
p6121
I1
sS'crutch'
p6122
I5
sS'misstepp'
p6123
I1
sS'skiff'
p6124
I1
sS'whittle'
p6125
I25
sS'tape-recorded'
p6126
I3
sS'tgdicate'
p6127
I1
sS'vroom'
p6128
I1
sS'head-but'
p6129
I16
sS'reacquire'
p6130
I5
sS'astound'
p6131
I4
sS'discourse'
p6132
I1
sS'cadge'
p6133
I1
sS'unstring'
p6134
I1
sS'decided-a'
p6135
I1
sS'puit'
p6136
I1
sS'unmount'
p6137
I2
sS'irradiate'
p6138
I1
sS'ingrain'
p6139
I2
sS'open'
p6140
I15509
sS'seduce'
p6141
I32
sS'dishonor'
p6142
I2
sS'butcher'
p6143
I14
sS'half-mast'
p6144
I1
sS'emphasize'
p6145
I145
sS'bristle'
p6146
I81
sS'sye'
p6147
I1
sS'change-damn'
p6148
I1
sS'flurry'
p6149
I6
sS'stripe'
p6150
I1
sS'unveil'
p6151
I63
sS'task'
p6152
I4
sS'finesse'
p6153
I6
sS'supersede'
p6154
I5
sS'rearm'
p6155
I2
sS'halve'
p6156
I34
sS'cross-reference'
p6157
I4
sS'mesmerise'
p6158
I1
sS'cornball'
p6159
I1
sS'consumme'
p6160
I1
sS'withdraw'
p6161
I876
sS'y'
p6162
I21
sS'traffic'
p6163
I4
sS'recant'
p6164
I23
sS'spend'
p6165
I5057
sS'howl'
p6166
I437
sS'darn'
p6167
I2
sS'eund'
p6168
I3
sS'criss-cross'
p6169
I8
sS'segregate'
p6170
I7
sS'shape'
p6171
I111
sS'andfollow'
p6172
I1
sS'bithard'
p6173
I1
sS'wage'
p6174
I72
sS'cut'
p6175
I3011
sS'cup'
p6176
I696
sS'alternate'
p6177
I69
sS'cuz'
p6178
I19
sS'snag'
p6179
I181
sS'forbid'
p6180
I66
sS'cue'
p6181
I8
sS'cub'
p6182
I1
sS'snap'
p6183
I2447
sS'cum'
p6184
I15
sS'brainstorm'
p6185
I4
sS'cui'
p6186
I1
sS'bin'
p6187
I2
sS'squawk'
p6188
I59
sS'wil'
p6189
I3
sS'bid'
p6190
I157
sS'settele'
p6191
I2
sS'displace'
p6192
I12
sS'indentify'
p6193
I1
sS'redeem'
p6194
I24
sS'rewett'
p6195
I1
sS'knock'
p6196
I3298
sS'blemish'
p6197
I1
sS'miff'
p6198
I2
sS'retake'
p6199
I37
sS'seme'
p6200
I2
sS'flub'
p6201
I1
sS'downcourt'
p6202
I1
sS'glove'
p6203
I33
sS'cross-leg'
p6204
I8
sS'brett'
p6205
I1
sS'downstair'
p6206
I13
sS'google'
p6207
I18
sS'diocese'
p6208
I1
sS'forenhite'
p6209
I1
sS'cheerleader'
p6210
I1
sS'back'
p6211
I2366
sS'impeach'
p6212
I9
sS'half-carry'
p6213
I6
sS'accelerate'
p6214
I292
sS'mirror'
p6215
I213
sS'vacuumm'
p6216
I1
sS'scald'
p6217
I25
sS'scale'
p6218
I132
sS'pet'
p6219
I69
sS'pelt'
p6220
I116
sS'whomp'
p6221
I2
sS'balmy'
p6222
I1
sS'overprice'
p6223
I1
sS'pen'
p6224
I15
sS'gallopp'
p6225
I1
sS'eliminate'
p6226
I169
sS'scalp'
p6227
I1
sS'ped'
p6228
I2
sS'pee'
p6229
I96
sS'peg'
p6230
I74
sS'invade'
p6231
I241
sS'larm'
p6232
I1
sS'apoligize'
p6233
I1
sS'moqe'
p6234
I1
sS'shoo-ed'
p6235
I1
sS'self-published'
p6236
I2
sS'knoblauch'
p6237
I1
sS'rite-aid'
p6238
I1
sS'hypnotize'
p6239
I9
sS'nose-dived'
p6240
I1
sS'insue'
p6241
I2
sS'delist'
p6242
I1
sS'bluster'
p6243
I12
sS'ppl'
p6244
I1
sS'jimmy'
p6245
I11
sS'sniffle'
p6246
I50
sS'depose'
p6247
I2
sS'clack'
p6248
I25
sS'hand-fed'
p6249
I1
sS'lesson'
p6250
I1
sS'vamoose'
p6251
I1
sS'half-lunge'
p6252
I1
sS'emblaze'
p6253
I2
sS'overpower'
p6254
I66
sS'&lt;'
p6255
I1
sS'homemade'
p6256
I2
sS'forward'
p6257
I37
sS'translate'
p6258
I49
sS'warlock'
p6259
I1
sS'whipser'
p6260
I2
sS'invite'
p6261
I794
sS'pronounce'
p6262
I90
sS'out-drove'
p6263
I1
sS'gunnell'
p6264
I1
sS'discomfit'
p6265
I1
sS'book-end'
p6266
I1
sS'outdrove'
p6267
I3
sS'flat-palm'
p6268
I1
sS'diskofy'
p6269
I1
sS'strategize'
p6270
I5
sS'dismatle'
p6271
I1
sS'groove'
p6272
I6
sS'pitchpole'
p6273
I2
sS'repulse'
p6274
I12
sS'partition'
p6275
I5
sS'slip-skid'
p6276
I1
sS'deprive'
p6277
I17
sS'lye'
p6278
I1
sS'single'
p6279
I679
sS'cure'
p6280
I28
sS'curb'
p6281
I36
sS'curl'
p6282
I1395
sS'prevail'
p6283
I137
sS're-ignite'
p6284
I1
sS'didbut'
p6285
I1
sS'mayfield'
p6286
I1
sS'gainesville'
p6287
I1
sS'sterilize'
p6288
I7
sS'excrete'
p6289
I3
sS'dakar'
p6290
I1
sS'assassinate'
p6291
I16
sS'confine'
p6292
I14
sS'quaff'
p6293
I2
sS'conclude'
p6294
I416
sS'good-naturedly'
p6295
I1
sS'lend'
p6296
I190
sS'tablespoon'
p6297
I1
sS'druid'
p6298
I1
sS'cater'
p6299
I41
sS'pink-slipped'
p6300
I2
sS'desert'
p6301
I33
sS'deglaze'
p6302
I1
sS'downcast'
p6303
I9
sS'cross-checked'
p6304
I1
sS'rinse'
p6305
I191
sS'shrug'
p6306
I1374
sS'unclamp'
p6307
I1
sS'geuss'
p6308
I1
sS'forecheck'
p6309
I2
sS'jason'
p6310
I1
sS'percipate'
p6311
I1
sS'wrangle'
p6312
I17
sS';]'
p6313
I1
sS'query'
p6314
I16
sS'golfer'
p6315
I1
sS'strew'
p6316
I11
sS'frisbeed'
p6317
I2
sS'compose'
p6318
I77
sS'lilli'
p6319
I1
sS'compost'
p6320
I3
sS'adjoin'
p6321
I10
sS'whap-whap-whapp'
p6322
I1
sS'brigade'
p6323
I1
sS'electrocute'
p6324
I5
sS'bench-press'
p6325
I2
sS'wasconduct'
p6326
I1
sS'rhyme'
p6327
I16
sS'lip-synched'
p6328
I3
sS'accuse'
p6329
I386
sS'reverberate'
p6330
I140
sS'untouch'
p6331
I3
sS'looooove'
p6332
I1
sS'arrange'
p6333
I503
sS'prefect'
p6334
I1
sS'sky-dived'
p6335
I1
sS'resurface'
p6336
I55
sS'shock'
p6337
I169
sS're-book'
p6338
I1
sS're-form'
p6339
I3
sS'havent'
p6340
I5
sS'lapse'
p6341
I26
sS'shedrew'
p6342
I1
sS'vell'
p6343
I1
sS'crow'
p6344
I19
sS'first-degree'
p6345
I1
sS'crop'
p6346
I5
sS'rebutton'
p6347
I2
sS'elise'
p6348
I2
sS'riverb'
p6349
I1
sS'avalanch'
p6350
I1
sS'zest'
p6351
I1
sS'speckle'
p6352
I1
sS'suppan'
p6353
I1
sS'hydroplan'
p6354
I6
sS'access'
p6355
I67
sS'delink'
p6356
I1
sS'stedy'
p6357
I1
sS'kayaker'
p6358
I1
sS'exercise'
p6359
I94
sS'body'
p6360
I1
sS'detangle'
p6361
I2
sS'exchange'
p6362
I682
sS'nitpick'
p6363
I2
sS're-situate'
p6364
I1
sS'intercept'
p6365
I144
sS'sink'
p6366
I1911
sS'dissuade'
p6367
I21
sS'sing'
p6368
I1148
sS'mewl'
p6369
I12
sS'bode'
p6370
I20
sS're-roof'
p6371
I1
sS'remark'
p6372
I100
sS'cere'
p6373
I1
sS'talent'
p6374
I2
sS'mis-hit'
p6375
I6
sS'uncap'
p6376
I16
sS's-s-sort'
p6377
I1
sS'resurrect'
p6378
I28
sS'crystallize'
p6379
I8
sS'climb'
p6380
I4326
sS'honor'
p6381
I71
sS'abominate'
p6382
I1
sS'limp'
p6383
I234
sS'unglue'
p6384
I4
sS'private'
p6385
I1
sS'sunray'
p6386
I1
sS'decrease'
p6387
I51
sS'beckon'
p6388
I273
sS'patrol'
p6389
I53
sS'vacuum-cleaned'
p6390
I1
sS'staple'
p6391
I14
sS'sermon'
p6392
I1
sS'lime'
p6393
I1
sS'tar'
p6394
I1
sS'europe-make'
p6395
I1
sS'medevace'
p6396
I1
sS'butler'
p6397
I1
sS'oily'
p6398
I1
sS'underplay'
p6399
I1
sS'engender'
p6400
I4
sS'trail'
p6401
I1059
sS'train'
p6402
I261
sS'announce'
p6403
I814
sS'crick'
p6404
I1
sS'harvest'
p6405
I15
sS'uncramp'
p6406
I1
sS'account'
p6407
I139
sS'tunnel'
p6408
I24
sS'unpeel'
p6409
I4
sS'one-touched'
p6410
I2
sS'praise'
p6411
I192
sS'smear'
p6412
I146
sS'didnt'
p6413
I98
sS'fetch'
p6414
I251
sS'fishtail'
p6415
I25
sS'patinae'
p6416
I1
sS'choweed'
p6417
I1
sS'spruce'
p6418
I30
sS'silk-screened'
p6419
I1
sS'rumble'
p6420
I560
sS'lame'
p6421
I2
sS'make-just'
p6422
I1
sS'fete'
p6423
I3
sS'half-lead'
p6424
I1
sS'stock'
p6425
I56
sS'profile'
p6426
I2
sS'kian'
p6427
I1
sS'voices-swirl'
p6428
I1
sS'nullify'
p6429
I7
sS'bluff'
p6430
I3
sS'fray'
p6431
I9
sS'geek'
p6432
I1
sS'drape'
p6433
I491
sS'bind'
p6434
I309
sS'bing'
p6435
I4
sS'correspond'
p6436
I31
sS'test-drive'
p6437
I3
sS're-open'
p6438
I12
sS'tamper'
p6439
I5
sS'outwrestle'
p6440
I1
sS'open-carry'
p6441
I1
sS'furnish'
p6442
I9
sS'ignite'
p6443
I180
sS'outclass'
p6444
I6
sS'disarm'
p6445
I66
sS'meter'
p6446
I2
sS'aand'
p6447
I1
sS'austrian'
p6448
I1
sS'envisage'
p6449
I2
sS'bunch'
p6450
I57
sS'front-flip'
p6451
I1
sS'cudgel'
p6452
I2
sS'li'
p6453
I2
sS'kindergarten'
p6454
I1
sS'rappell'
p6455
I5
sS'outbid'
p6456
I1
sS'lunatic'
p6457
I1
sS'dab'
p6458
I119
sS'dal'
p6459
I1
sS'actuate'
p6460
I2
sS'dan'
p6461
I1
sS'unstrapp'
p6462
I11
sS'dai'
p6463
I1
sS'denigrate'
p6464
I2
sS'mention'
p6465
I714
sS'landan'
p6466
I1
sS'mandate'
p6467
I15
sS're-light'
p6468
I2
sS'kindness'
p6469
I1
sS'capapult'
p6470
I1
sS'strive'
p6471
I41
sS'flail'
p6472
I245
sS'fictionalize'
p6473
I1
sS'thrill'
p6474
I66
sS'slacken'
p6475
I40
sS'preclude'
p6476
I10
sS'aboke'
p6477
I1
sS'decommission'
p6478
I2
sS'shortcircuit'
p6479
I1
sS'toke'
p6480
I1
sS'disregard'
p6481
I35
sS'activate'
p6482
I161
sS'thwart'
p6483
I47
sS'belgrade'
p6484
I1
sS'baulk'
p6485
I2
sS'calibrate'
p6486
I3
sS'wade'
p6487
I268
sS'fondle'
p6488
I57
sS'defend'
p6489
I464
sS'rev'
p6490
I109
sS'presumed-come'
p6491
I1
sS'repress'
p6492
I24
sS'stub'
p6493
I44
sS'farm'
p6494
I8
sS'mate'
p6495
I24
sS'stud'
p6496
I22
sS'lecture'
p6497
I80
sS'postpone'
p6498
I51
sS'stun'
p6499
I173
sS're-experience'
p6500
I2
sS'overhit'
p6501
I1
sS"s'pore"
p6502
I1
sS'errupt'
p6503
I2
sS'scumbag'
p6504
I1
sS'pressagainst'
p6505
I1
sS'clarify'
p6506
I26
sS'droppp'
p6507
I1
sS'upbraid'
p6508
I5
sS'bleed'
p6509
I276
sS'indent'
p6510
I1
sS'skateboard'
p6511
I4
sS'unbraid'
p6512
I5
sS'red-flagged'
p6513
I1
sS'neutralise'
p6514
I1
sS'chicken'
p6515
I11
sS'abuse'
p6516
I54
sS'blossume'
p6517
I1
sS'twins_signed'
p6518
I1
sS'retain'
p6519
I198
sS'retail'
p6520
I5
sS'facilitate'
p6521
I17
sS're-sold'
p6522
I1
sS'waitress'
p6523
I1
sS'predominate'
p6524
I5
sS'stairmaster-ed'
p6525
I1
sS'overshoot'
p6526
I19
sS're-positioned'
p6527
I1
sS'black-lock'
p6528
I1
sS'sack'
p6529
I145
sS'whoop'
p6530
I65
sS'betroth'
p6531
I3
sS'hurdle'
p6532
I26
sS'arm-wrestle'
p6533
I2
sS'unaid'
p6534
I1
sS'instill'
p6535
I15
sS'stencil'
p6536
I9
sS'right-click'
p6537
I1
sS'tootle'
p6538
I1
sS'riverboat'
p6539
I1
sS'lapi'
p6540
I1
sS'regurgitate'
p6541
I9
sS'jingle'
p6542
I34
sS'galvanize'
p6543
I28
sS'eavesdrop'
p6544
I25
sS'smolder'
p6545
I46
sS'acquire'
p6546
I342
sS'flump'
p6547
I1
sS'mollify'
p6548
I4
sS'reaffirm'
p6549
I45
sS'recieve'
p6550
I17
sS'slack'
p6551
I12
sS'morph'
p6552
I77
sS'shampoo'
p6553
I10
sS'colide'
p6554
I1
sS'have-without'
p6555
I1
sS'embody'
p6556
I10
sS'overindulge'
p6557
I1
sS'doctorate'
p6558
I1
sS'gambol'
p6559
I4
sS'aquire'
p6560
I1
sS'retreive'
p6561
I1
sS'recuse'
p6562
I4
sS'neutralize'
p6563
I29
sS'tidy'
p6564
I53
sS'tide'
p6565
I4
sS'have'
p6566
I95378
sS'dictate'
p6567
I71
sS'throat'
p6568
I1
sS'waken'
p6569
I14
sS'mix'
p6570
I139
sS'neaten'
p6571
I2
sS'rubber-stamp'
p6572
I2
sS'salle'
p6573
I1
sS'emly'
p6574
I1
sS'innervate'
p6575
I1
sS'procure'
p6576
I20
sS'rearrange'
p6577
I57
sS'anfd'
p6578
I1
sS'clamber'
p6579
I201
sS'sally'
p6580
I2
sS'snuffle'
p6581
I19
sS'unfaze'
p6582
I3
sS'strach'
p6583
I1
sS'wishbon'
p6584
I1
sS'gather'
p6585
I1875
sS'request'
p6586
I241
sS'rendezvous'
p6587
I7
sS'skinny'
p6588
I2
sS'lopes-schliep'
p6589
I1
sS'outlive'
p6590
I6
sS'squeegee'
p6591
I5
sS'thicken'
p6592
I92
sS'recess'
p6593
I1
sS'text'
p6594
I125
sS'incapacitate'
p6595
I12
sS'rebuke'
p6596
I11
sS'sidetrack'
p6597
I4
sS'floodlight'
p6598
I1
sS'staff'
p6599
I5
sS'startle'
p6600
I398
sS'prolong'
p6601
I27
sS'winess'
p6602
I1
sS'tripped-up'
p6603
I1
sS'beable'
p6604
I1
sS'beat'
p6605
I2127
sS'pave'
p6606
I51
sS'beam'
p6607
I201
sS'bean'
p6608
I1
sS'beak'
p6609
I1
sS'bead'
p6610
I43
sS'misappropriate'
p6611
I2
sS'salt-roast'
p6612
I1
sS'spread-eagle'
p6613
I5
sS'halfcourt'
p6614
I1
sS'defame'
p6615
I2
sS'swold'
p6616
I1
sS'conform'
p6617
I19
sS'misnudge'
p6618
I1
sS'puddle'
p6619
I14
sS'blackball'
p6620
I1
sS'on-sight'
p6621
I1
sS'reiterate'
p6622
I55
sS'dislodge'
p6623
I108
sS'inhabt'
p6624
I1
sS'1:45'
p6625
I1
sS'half-duck'
p6626
I1
sS'toy-size'
p6627
I1
sS'vilify'
p6628
I5
sS'wa'
p6629
I1
sS'reform'
p6630
I41
sS'pattern'
p6631
I3
sS'segment'
p6632
I1
sS'rewire'
p6633
I6
sS'pinken'
p6634
I1
sS'progress'
p6635
I154
sS'sorrow'
p6636
I1
sS'grumble'
p6637
I221
sS'deliver'
p6638
I795
sS'complicate'
p6639
I7
sS'enflame'
p6640
I6
sS'dead-bolt'
p6641
I1
sS'exclaim'
p6642
I272
sS'alaric'
p6643
I1
sS'asunder'
p6644
I1
sS'joke'
p6645
I261
sS'equal'
p6646
I59
sS'pulp'
p6647
I1
sS'kosher'
p6648
I1
sS'assure'
p6649
I332
sS'predispose'
p6650
I1
sS'snow-flake'
p6651
I1
sS'swallow'
p6652
I1537
sS'comment'
p6653
I275
sS'fester'
p6654
I22
sS'lithuania'
p6655
I1
sS'denim'
p6656
I1
sS'commend'
p6657
I10
sS'ab'
p6658
I1
sS'laugh'
p6659
I3790
sS'lauge'
p6660
I1
sS'finallyrealize'
p6661
I1
sS'electrify'
p6662
I10
sS'muddy'
p6663
I9
sS'gaze'
p6664
I3843
sS'rump'
p6665
I1
sS'curtain'
p6666
I1
sS'curtail'
p6667
I26
sS'define'
p6668
I111
sS'un-hook'
p6669
I1
sS'bulk'
p6670
I8
sS'tense'
p6671
I397
sS'bull'
p6672
I22
sS'gross'
p6673
I17
sS'volunteer'
p6674
I262
sS'homer'
p6675
I144
sS'entrepreneuralism'
p6676
I1
sS'value'
p6677
I41
sS'plait'
p6678
I4
sS'was-and'
p6679
I1
sS'slingshott'
p6680
I2
sS'permeate'
p6681
I60
sS'vulcanize'
p6682
I1
sS'refroze'
p6683
I1
sS'bicker'
p6684
I13
sS'sujjest'
p6685
I1
sS'almost'
p6686
I1
sS'dissent'
p6687
I23
sS'squib'
p6688
I7
sS'vibrated/chimed'
p6689
I1
sS'barehand'
p6690
I8
sS'ax'
p6691
I9
sS'partner'
p6692
I13
sS'bloodless'
p6693
I1
sS'portray'
p6694
I105
sS'whirl'
p6695
I521
sS'fist-bumped'
p6696
I1
sS'oink'
p6697
I1
sS'eulogize'
p6698
I1
sS'boo-hoo'
p6699
I1
sS'hank'
p6700
I2
sS'her\\/his'
p6701
I1
sS'shuttle'
p6702
I35
sS'infer'
p6703
I3
sS'tighten'
p6704
I1226
sS'toil'
p6705
I41
sS'pockmark'
p6706
I1
sS'swirled-and-twirled'
p6707
I1
sS'fucker'
p6708
I2
sS'sauna'
p6709
I1
sS'breech'
p6710
I1
sS'airlock'
p6711
I1
sS'jayden'
p6712
I1
sS'insure'
p6713
I29
sS'retard'
p6714
I6
sS'center'
p6715
I102
sS'glomm'
p6716
I1
sS'chastisement'
p6717
I1
sS'col'
p6718
I3
sS'starboard'
p6719
I1
sS'publicize'
p6720
I8
sS'muscle'
p6721
I70
sS'reintroduce'
p6722
I7
sS'unarm'
p6723
I2
sS'excise'
p6724
I2
sS'ratify'
p6725
I10
sS'necessitate'
p6726
I10
sS'inveigle'
p6727
I3
sS'evince'
p6728
I2
sS'surpass'
p6729
I57
sS'tone'
p6730
I18
sS'hand-over'
p6731
I1
sS'lake'
p6732
I1
sS'bench'
p6733
I57
sS'add'
p6734
I2323
sS'strech'
p6735
I1
sS'scrimp'
p6736
I6
sS'reenact'
p6737
I9
sS'overtreat'
p6738
I1
sS'smart'
p6739
I7
sS'annoint'
p6740
I2
sS'miscalculate'
p6741
I10
sS'unherald'
p6742
I1
sS'realix'
p6743
I1
sS'hotel-shopped'
p6744
I1
sS'half-expect'
p6745
I34
sS'window-shop'
p6746
I1
sS'insert'
p6747
I319
sS'enfold'
p6748
I33
sS'worky'
p6749
I1
sS're-pot'
p6750
I2
sS'heed'
p6751
I97
sS'arraign'
p6752
I1
sS'audible'
p6753
I2
sS'heel'
p6754
I16
sS'awash'
p6755
I2
sS'propel'
p6756
I252
sS'abolitionism'
p6757
I1
sS'hail'
p6758
I132
sS'hair'
p6759
I13
sS'corroborate'
p6760
I3
sS'reimpose'
p6761
I1
sS'convey'
p6762
I112
sS'indemnify'
p6763
I2
sS'efface'
p6764
I1
sS'incant'
p6765
I3
sS'spen'
p6766
I1
sS'woul'
p6767
I1
sS'blackstone'
p6768
I1
sS'terri'
p6769
I1
sS'muff'
p6770
I24
sS'countersuit'
p6771
I1
sS'snuggle'
p6772
I320
sS'regain'
p6773
I806
sS'pepper'
p6774
I63
sS'noise'
p6775
I2
sS'slight'
p6776
I2
sS'stinkaroo'
p6777
I1
sS'host'
p6778
I164
sS'expire'
p6779
I119
sS'manouver'
p6780
I1
sS'narrate'
p6781
I8
sS'panel'
p6782
I2
sS'look-he'
p6783
I1
sS'flake'
p6784
I13
sS'preen'
p6785
I13
sS'decimate'
p6786
I8
sS'evoke'
p6787
I56
sS'was-take'
p6788
I1
sS'discard'
p6789
I74
sS'!!'
p6790
I16
sS're-appear'
p6791
I7
sS'guard'
p6792
I173
sS'doesnt'
p6793
I4
sS'esteem'
p6794
I1
sS'midfielder'
p6795
I2
sS'cross-breed'
p6796
I1
sS'custard'
p6797
I1
sS'outtouch'
p6798
I1
sS'wack'
p6799
I4
sS'underpass'
p6800
I1
sS'illy'
p6801
I1
sS'buckle'
p6802
I344
sS'condense'
p6803
I3
sS'undeterr'
p6804
I2
sS'inasmuch'
p6805
I1
sS'glimmer'
p6806
I54
sS'comparison-shopped'
p6807
I1
sS'buy'
p6808
I3724
sS'bobble'
p6809
I51
sS'bus'
p6810
I4
sS'brand'
p6811
I30
sS'but'
p6812
I38
sS'plague'
p6813
I81
sS'bum'
p6814
I23
sS'bug'
p6815
I22
sS'bud'
p6816
I7
sS'embargo'
p6817
I2
sS'wise'
p6818
I7
sS'josh'
p6819
I1
sS'glory'
p6820
I11
sS'flit'
p6821
I113
sS'wisk'
p6822
I1
sS'flip'
p6823
I1952
sS'thrice'
p6824
I1
sS'wisp'
p6825
I6
sS'in-bound'
p6826
I2
sS'knowno'
p6827
I1
sS'finger-fuck'
p6828
I3
sS'half-walked-half-stumble'
p6829
I1
sS'imbarse'
p6830
I1
sS'pin'
p6831
I571
sS'stopcock'
p6832
I1
sS'whisper'
p6833
I2069
sS'pig'
p6834
I3
sS'crusade'
p6835
I1
sS'swordfight'
p6836
I1
sS'pip'
p6837
I1
sS'dawson'
p6838
I1
sS'pit'
p6839
I40
sS'spell'
p6840
I66
sS'grybow'
p6841
I1
sS'detail'
p6842
I16
sS'detain'
p6843
I52
sS'sewer'
p6844
I1
sS'ledge'
p6845
I1
sS'redden'
p6846
I24
sS'appologize'
p6847
I2
sS'sugarcoat'
p6848
I1
sS'bundle'
p6849
I57
sS'wallow'
p6850
I21
sS'heple'
p6851
I1
sS'\xe2\x80\xa2'
p6852
I1
sS'wallop'
p6853
I18
sS'goin'
p6854
I1
sS'ollie-manual'
p6855
I1
sS'wheezed/laughed'
p6856
I1
sS'ramble'
p6857
I53
sS'yelp'
p6858
I328
sS'entreat'
p6859
I5
sS'yell'
p6860
I2047
sS'parole'
p6861
I1
sS'sleek'
p6862
I1
sS'sleep'
p6863
I2927
sS'frostbite'
p6864
I2
sS'hate'
p6865
I1097
sS'yonder'
p6866
I1
sS'rebury'
p6867
I2
sS'trolley'
p6868
I1
sS'muzzle'
p6869
I15
sS'upchuck'
p6870
I3
sS'ventilate'
p6871
I3
sS'violate'
p6872
I119
sS'caddie'
p6873
I7
sS'tweet'
p6874
I2
sS'regrete'
p6875
I1
sS'rankle'
p6876
I8
sS'undergird'
p6877
I1
sS'pride'
p6878
I34
sS'leash'
p6879
I2
sS'chitchatt'
p6880
I2
sS'lure'
p6881
I120
sS'risk'
p6882
I272
sS'dispense'
p6883
I35
sS'rise'
p6884
I4809
sS'lurk'
p6885
I78
sS'ecounter'
p6886
I1
sS'jack'
p6887
I49
sS'jace'
p6888
I1
sS'wick'
p6889
I1
sS'encounter'
p6890
I344
sS'school'
p6891
I35
sS'parrot'
p6892
I1
sS'humph'
p6893
I2
sS'flashe'
p6894
I1
sS'conceive'
p6895
I45
sS'dead-center'
p6896
I1
sS'smoky'
p6897
I1
sS'venus'
p6898
I2
sS'cloudiness'
p6899
I1
sS'enjoy'
p6900
I1818
sS'eedite'
p6901
I1
sS'overdo'
p6902
I5
sS'bicycle'
p6903
I9
sS'throught'
p6904
I1
sS'listserve'
p6905
I1
sS'direct'
p6906
I626
sS'nail'
p6907
I136
sS'scrutinize'
p6908
I64
sS'persuade'
p6909
I356
sS'untense'
p6910
I1
sS'kn-kn-know'
p6911
I1
sS'ransack'
p6912
I24
sS'hide'
p6913
I1853
sS'hidd'
p6914
I1
sS'ruben'
p6915
I1
sS'worsen'
p6916
I87
sS'comingup'
p6917
I1
sS'introspect'
p6918
I1
sS't-bone'
p6919
I1
sS'poison'
p6920
I13
sS'insinuate'
p6921
I14
sS'endorse'
p6922
I105
sS'wart'
p6923
I1
sS'disney'
p6924
I1
sS'woozy'
p6925
I1
sS'capetown'
p6926
I1
sS'de-bone'
p6927
I1
sS'metamorphose'
p6928
I4
sS'socialize'
p6929
I28
sS'pate'
p6930
I1
sS'enrol'
p6931
I296
sS'pennell'
p6932
I1
sS'ravish'
p6933
I16
sS'auction'
p6934
I17
sS'viglione'
p6935
I1
sS'ridicule'
p6936
I16
sS'fast-walked'
p6937
I1
sS'culminate'
p6938
I16
sS'outpace'
p6939
I18
sS'mentor'
p6940
I2
sS'york'
p6941
I1
sS'julio'
p6942
I1
sS'offr'
p6943
I1
sS'stray'
p6944
I73
sS'strap'
p6945
I163
sS'viscera'
p6946
I1
sS'iconoclast'
p6947
I1
sS'melani'
p6948
I1
sS'sympathise'
p6949
I1
sS'manoeuver'
p6950
I1
sS'would'
p6951
I2
sS'pigeonhole'
p6952
I1
sS'bayou'
p6953
I1
sS'interlace'
p6954
I12
sS'swinge'
p6955
I1
sS'cross-hair'
p6956
I1
sS'preview'
p6957
I5
sS'jumped-step'
p6958
I1
sS'over-interpreted'
p6959
I1
sS'breathe'
p6960
I2031
sS'blather'
p6961
I3
sS'mush'
p6962
I18
sS'muse'
p6963
I64
sS'phone'
p6964
I164
sS'spazz'
p6965
I1
sS'masticate'
p6966
I1
sS'unstrap'
p6967
I2
sS'replye'
p6968
I1
sS'adjourn'
p6969
I19
sS'toodle'
p6970
I1
sS'pouch'
p6971
I1
sS'shoot'
p6972
I3795
sS'join'
p6973
I4486
sS'ml'
p6974
I1
sS'outgain'
p6975
I12
sS'declassify'
p6976
I1
sS'hoboe'
p6977
I1
sS'daft'
p6978
I1
sS'install'
p6979
I220
sS'mr'
p6980
I1
sS'downfield'
p6981
I1
sS'salvage'
p6982
I58
sS'grenade'
p6983
I3
sS'fortress'
p6984
I1
sS'quarrel'
p6985
I37
sS'karate-chop'
p6986
I3
sS'defile'
p6987
I4
sS'loosen'
p6988
I442
sS'souvien'
p6989
I1
sS'hand-deliver'
p6990
I1
sS'match-point'
p6991
I1
sS'jumble'
p6992
I3
sS'co-hosted'
p6993
I4
sS'attract'
p6994
I324
sS'calve'
p6995
I1
sS'guarantee'
p6996
I67
sS'known-and'
p6997
I1
sS'ene'
p6998
I1
sS'trill'
p6999
I14
sS'keen'
p7000
I29
sS're-engage'
p7001
I3
sS'bunk'
p7002
I16
sS'shred'
p7003
I87
sS'enquire'
p7004
I14
sS'bunt'
p7005
I63
sS'gate'
p7006
I4
sS'raffle'
p7007
I3
sS'moisten'
p7008
I33
sS'unhorse'
p7009
I1
sS'mispronounce'
p7010
I4
sS'mess'
p7011
I72
sS'lump'
p7012
I3
sS'underhand'
p7013
I5
sS'mesh'
p7014
I23
sS'double-pump'
p7015
I1
sS'spout'
p7016
I48
sS'arbitrate'
p7017
I1
sS'criss-crossed'
p7018
I1
sS'patent'
p7019
I15
sS'malinger'
p7020
I1
sS'enter'
p7021
I5200
sS'vapor'
p7022
I1
sS'remold'
p7023
I1
sS'untabb'
p7024
I1
sS'react'
p7025
I840
sS'deform'
p7026
I1
sS'sprout'
p7027
I95
sS'clench'
p7028
I569
sS'uncross'
p7029
I16
sS'sickle'
p7030
I1
sS'reorient'
p7031
I11
sS'outshine'
p7032
I7
sS'eist'
p7033
I2
sS'ovel'
p7034
I1
sS'oven'
p7035
I2
sS'strangle'
p7036
I72
sS'digest'
p7037
I34
sS'outface'
p7038
I1
sS'ime'
p7039
I2
sS'cli'
p7040
I9
sS'callouse'
p7041
I1
sS'cla'
p7042
I1
sS'comprehend'
p7043
I82
sS'tramp'
p7044
I16
sS'cantu'
p7045
I1
sS'strand'
p7046
I21
sS'fade'
p7047
I938
sS'mistreat'
p7048
I4
sS'vandalize'
p7049
I8
sS'couldhear'
p7050
I1
sS'aureole'
p7051
I1
sS'plaster'
p7052
I81
sS'roost'
p7053
I17
sS'depopulate'
p7054
I1
sS'held-while'
p7055
I1
sS'manicure'
p7056
I2
sS'bear-hug'
p7057
I3
sS'over-committed'
p7058
I1
sS'chuck'
p7059
I102
sS'explode'
p7060
I1493
sS'frantically'
p7061
I1
sS'holdin'
p7062
I1
sS'each'
p7063
I2
sS'radomski'
p7064
I1
sS'dethrone'
p7065
I1
sS'consolidate'
p7066
I45
sS'prohibit'
p7067
I58
sS'team-taught'
p7068
I1
sS'power-text'
p7069
I1
sS'unscrew'
p7070
I60
sS'waffle'
p7071
I6
sS'thermo'
p7072
I2
sS'clothe'
p7073
I38
sS'pounce'
p7074
I291
sS'depress'
p7075
I60
sS'gon'
p7076
I2
sS'lair'
p7077
I3
sS'bumbfuzzle'
p7078
I1
sS'adjust'
p7079
I618
sS'nite'
p7080
I2
sS'lacelike'
p7081
I1
sS'swell'
p7082
I389
sS'underwrite'
p7083
I14
sS"d'you"
p7084
I1
sS're-created'
p7085
I7
sS'associate'
p7086
I42
sS'rail'
p7087
I47
sS'appare'
p7088
I1
sS'wanter'
p7089
I1
sS'free'
p7090
I332
sS're-creates'
p7091
I1
sS'polarize'
p7092
I3
sS'streamline'
p7093
I11
sS'constellate'
p7094
I1
sS'pistol-whip'
p7095
I5
sS'fret'
p7096
I67
sS'ran/jogged'
p7097
I1
sS'biltmore'
p7098
I1
sS'conceptualize'
p7099
I2
sS'filter'
p7100
I85
sS'co-owns'
p7101
I1
sS'aspire'
p7102
I33
sS'recite'
p7103
I99
sS'pigskin'
p7104
I1
sS'shantung'
p7105
I1
sS're-count'
p7106
I1
sS'smelled-it'
p7107
I1
sS'puck'
p7108
I1
sS'rank'
p7109
I196
sS'bushwhack'
p7110
I4
sS'bombard'
p7111
I45
sS'rant'
p7112
I29
sS'sober'
p7113
I26
sS'categorize'
p7114
I3
sS'calorie'
p7115
I1
sS'slalome'
p7116
I9
sS'de-emphasize'
p7117
I1
sS'reholster'
p7118
I2
sS'combate'
p7119
I2
sS'toy'
p7120
I71
sS'potty'
p7121
I2
sS'top'
p7122
I263
sS'tow'
p7123
I33
sS'tot'
p7124
I1
sS'tok'
p7125
I1
sS'abridge'
p7126
I1
sS'toe'
p7127
I39
sS'hangout'
p7128
I2
sS'tool'
p7129
I4
sS'serve'
p7130
I2417
sS'tassel'
p7131
I1
sS'embellish'
p7132
I7
sS'downsize'
p7133
I4
sS'panch'
p7134
I1
sS'toot'
p7135
I7
sS'repeatable'
p7136
I1
sS'incur'
p7137
I26
sS'galbi'
p7138
I1
sS'de-activated'
p7139
I1
sS're-craft'
p7140
I1
sS'lather'
p7141
I54
sS'roxbury'
p7142
I1
sS'rampage'
p7143
I15
sS'nominate'
p7144
I40
sS'flame'
p7145
I54
sS'bridge'
p7146
I26
sS'fashion'
p7147
I38
sS'ral'
p7148
I1
sS'ram'
p7149
I334
sS'torque'
p7150
I4
sS'drip'
p7151
I542
sS'rat'
p7152
I7
sS'contiun'
p7153
I1
sS'ejack'
p7154
I1
sS'rap'
p7155
I105
sS'eile'
p7156
I1
sS're-married'
p7157
I1
sS'spade'
p7158
I1
sS'misspell'
p7159
I1
sS'half-stumble'
p7160
I1
sS'brannan'
p7161
I1
sS'relapse'
p7162
I7
sS'snow'
p7163
I13
sS'geffen'
p7164
I1
sS'hatch'
p7165
I15
sS'caffeine-wire'
p7166
I1
sS'cozied-up'
p7167
I1
sS'crumble-fold'
p7168
I1
sS'exprire'
p7169
I1
sS'audition'
p7170
I32
sS'coif'
p7171
I2
sS'coil'
p7172
I98
sS'glow'
p7173
I543
sS'interject'
p7174
I16
sS'flop'
p7175
I347
sS'flow'
p7176
I845
sS'trailblaze'
p7177
I1
sS'transpire'
p7178
I24
sS'flog'
p7179
I4
sS'yank'
p7180
I1536
sS'bait'
p7181
I16
sS'inspire'
p7182
I170
sS'endear'
p7183
I9
sS'alight'
p7184
I51
sS'reorganize'
p7185
I12
sS'skitter'
p7186
I141
sS'dupe'
p7187
I5
sS'radio'
p7188
I49
sS'earth'
p7189
I1
sS'peddle'
p7190
I22
sS'bail'
p7191
I95
sS'ahte'
p7192
I1
sS'ock'
p7193
I2
sS'splish-splashed'
p7194
I1
sS'spite'
p7195
I1
sS'abjure'
p7196
I2
sS'institution'
p7197
I1
sS'knuckle'
p7198
I9
sS'disgust'
p7199
I14
sS'lodge'
p7200
I195
sS'enslave'
p7201
I5
sS'geez'
p7202
I1
sS'waltz'
p7203
I39
sS'uhhh'
p7204
I1
sS'watch'
p7205
I13445
sS'trans-verse'
p7206
I1
sS'baffle'
p7207
I33
sS'oversell'
p7208
I2
sS'report'
p7209
I705
sS'reconstruct'
p7210
I22
sS'reinstall'
p7211
I9
sS'unlatch'
p7212
I67
sS'co-own'
p7213
I2
sS'erupt'
p7214
I916
sS'girdle'
p7215
I2
sS'pummel'
p7216
I121
sS'sabo'
p7217
I1
sS'wrest'
p7218
I25
sS'nut'
p7219
I1
sS'resist'
p7220
I818
sS'understeer'
p7221
I1
sS'fwish'
p7222
I1
sS'corrupt'
p7223
I1
sS'outwait'
p7224
I1
sS'discoverd'
p7225
I1
sS'accede'
p7226
I18
sS'mur'
p7227
I1
sS'mug'
p7228
I5
sS'untrouble'
p7229
I1
sS'finger'
p7230
I133
sS'mum'
p7231
I2
sS'mul'
p7232
I1
sS'approach'
p7233
I3274
sS'dissapear'
p7234
I2
sS'drowse'
p7235
I3
sS'wean'
p7236
I4
sS'weak'
p7237
I1
sS'contort'
p7238
I14
sS'boss'
p7239
I1
sS'virus-scan'
p7240
I1
sS'devour'
p7241
I240
sS'pack-up'
p7242
I1
sS'wear'
p7243
I4318
sS're-injured'
p7244
I3
sS'chargedforward'
p7245
I1
sS'drowsy'
p7246
I1
sS'improve'
p7247
I537
sS'protect'
p7248
I932
sS'fault'
p7249
I9
sS'jelly'
p7250
I7
sS'high-five'
p7251
I13
sS'tattle'
p7252
I5
sS'encore'
p7253
I1
sS'faulk'
p7254
I1
sS'counter-charge'
p7255
I1
sS'jello'
p7256
I1
sS'whampoa'
p7257
I1
sS'confide'
p7258
I56
sS'rebandage'
p7259
I2
sS'maudlin'
p7260
I1
sS'trust'
p7261
I441
sS'truss'
p7262
I8
sS'beef'
p7263
I9
sS'thought-maybe'
p7264
I1
sS"ma'am"
p7265
I10
sS'beep'
p7266
I128
sS'submarine'
p7267
I1
sS'communion'
p7268
I1
sS'loft'
p7269
I95
sS'lept'
p7270
I6
sS'grocery-shopped'
p7271
I1
sS'steamroller'
p7272
I1
sS'craft'
p7273
I42
sS'catch'
p7274
I8708
sS'proselytize'
p7275
I3
sS'spritz'
p7276
I11
sS'snipe'
p7277
I7
sS'tow-ere'
p7278
I1
sS'schlep'
p7279
I5
sS'lessen'
p7280
I85
sS'weren'
p7281
I1
sS'wereclose'
p7282
I1
sS'precede'
p7283
I73
sS'untuck'
p7284
I8
sS'double-reported'
p7285
I1
sS'chervil'
p7286
I1
sS'tress'
p7287
I1
sS'misspoke'
p7288
I2
sS'play-actioned'
p7289
I1
sS'surcharge'
p7290
I2
sS'spunthe'
p7291
I1
sS'suggest'
p7292
I850
sS'wound'
p7293
I21
sS'swall'
p7294
I2
sS'overstep'
p7295
I4
sS'inventory'
p7296
I4
sS'outslugg'
p7297
I2
sS'deflect'
p7298
I325
sS'moosh'
p7299
I5
sS'postmark'
p7300
I1
sS'cycle'
p7301
I35
sS'punctuate'
p7302
I46
sS'specialize'
p7303
I41
sS'prioritize'
p7304
I6
sS'www.nara.gov'
p7305
I1
sS'doff'
p7306
I23
sS'quick-draw'
p7307
I1
sS'hearty'
p7308
I1
sS'bough'
p7309
I3
sS'bugger'
p7310
I5
sS'appease'
p7311
I25
sS'bruise'
p7312
I32
sS'high-step'
p7313
I2
sS'uncooperative'
p7314
I1
sS'diesele'
p7315
I1
sS'propitiate'
p7316
I1
sS'enlighten'
p7317
I8
sS'eli'
p7318
I1
sS'acheive'
p7319
I1
sS'taleggio'
p7320
I1
sS"f**kin'"
p7321
I1
sS'overemphasize'
p7322
I1
sS'tarpon'
p7323
I1
sS'aylan'
p7324
I1
sS'bandy'
p7325
I1
sS'belabour'
p7326
I1
sS'chitin'
p7327
I1
sS'upturn'
p7328
I7
sS'ramrod'
p7329
I2
sS'dismount'
p7330
I176
sS'telework'
p7331
I1
sS'judge'
p7332
I117
sS'befit'
p7333
I5
sS'ducktap'
p7334
I1
sS're-introduced'
p7335
I1
sS'ditto'
p7336
I3
sS'swill'
p7337
I9
sS'contradict'
p7338
I28
sS'hunt'
p7339
I132
sS'f**king'
p7340
I3
sS'zoom'
p7341
I153
sS'hunh'
p7342
I1
sS'whomever'
p7343
I3
sS'brushthe'
p7344
I1
sS'scuba-dived'
p7345
I1
sS'envision'
p7346
I107
sS'sponge'
p7347
I12
sS'accost'
p7348
I21
sS'usher'
p7349
I273
sS'escape'
p7350
I1855
sS'advertise'
p7351
I63
sS'suuuch'
p7352
I1
sS'drink/eat'
p7353
I1
sS'laser-focus'
p7354
I1
sS'combat'
p7355
I55
sS'convice'
p7356
I1
sS'reinvest'
p7357
I4
sS'ice'
p7358
I13
sS'icy'
p7359
I1
sS'side-to-side'
p7360
I1
sS'backspace'
p7361
I1
sS'allocate'
p7362
I10
sS'convict'
p7363
I48
sS'faff'
p7364
I1
sS'cord'
p7365
I4
sS'stay-for'
p7366
I1
sS'doo-wop'
p7367
I1
sS'cora'
p7368
I2
sS'brawl'
p7369
I3
sS'enunciate'
p7370
I3
sS'cork'
p7371
I4
sS'discount'
p7372
I16
sS'shuck'
p7373
I30
sS'reliquefy'
p7374
I1
sS'plug'
p7375
I226
sS'cowboy'
p7376
I1
sS'choke'
p7377
I621
sS'surround'
p7378
I702
sS"o'neal"
p7379
I1
sS're-commence'
p7380
I1
sS'ensure'
p7381
I306
sS'inveigh'
p7382
I1
sS'outcoach'
p7383
I1
sS'twitch'
p7384
I303
sS'curry'
p7385
I13
sS'blabber'
p7386
I4
sS'vacuum-sealed'
p7387
I1
sS'duke'
p7388
I3
sS'abet'
p7389
I1
sS'ahd'
p7390
I2
sS'presence'
p7391
I1
sS'puzzle'
p7392
I67
sS'ask-where'
p7393
I1
sS'bath'
p7394
I146
sS'accommodate'
p7395
I117
sS'head-butt'
p7396
I2
sS'emigrate'
p7397
I57
sS'rely'
p7398
I208
sS'git'
p7399
I4
sS'implore'
p7400
I35
sS'scamper'
p7401
I198
sS'transform'
p7402
I232
sS'gig'
p7403
I2
sS'anderson'
p7404
I1
sS'gid'
p7405
I1
sS'metabolise'
p7406
I1
sS'naught'
p7407
I3
sS'gim'
p7408
I4
sS'shhh'
p7409
I1
sS'head'
p7410
I5347
sS'heal'
p7411
I234
sS'discourage'
p7412
I48
sS'heat'
p7413
I109
sS'hear'
p7414
I12648
sS'outfox'
p7415
I2
sS'heap'
p7416
I43
sS'torre'
p7417
I2
sS'choreograph'
p7418
I13
sS'humiliate'
p7419
I29
sS're-ask'
p7420
I1
sS'counsel'
p7421
I22
sS'muster'
p7422
I202
sS'his/her'
p7423
I3
sS'prowl'
p7424
I80
sS'quicksilver'
p7425
I1
sS'adore'
p7426
I94
sS'decorate'
p7427
I87
sS'radicalize'
p7428
I2
sS'rehire'
p7429
I3
sS'scrabble'
p7430
I63
sS'bide'
p7431
I13
sS'latch'
p7432
I506
sS'adorn'
p7433
I96
sS'trim'
p7434
I150
sS'flying-kick'
p7435
I1
sS'hand-picks'
p7436
I1
sS'decrypt'
p7437
I1
sS'effervesce'
p7438
I1
sS'borg'
p7439
I1
sS'reenter'
p7440
I56
sS'furl'
p7441
I9
sS'chech'
p7442
I1
sS'mentiin'
p7443
I1
sS'relieflast'
p7444
I1
sS'tit'
p7445
I1
sS'tip'
p7446
I754
sS'unforce'
p7447
I1
sS'til'
p7448
I3
sS'tim'
p7449
I1
sS'tin'
p7450
I1
sS'whet'
p7451
I8
sS'formalize'
p7452
I1
sS'tie'
p7453
I1804
sS'implant'
p7454
I47
sS'hamfast'
p7455
I1
sS'eternity'
p7456
I1
sS'picture'
p7457
I295
sS'reconsider'
p7458
I54
sS'cede'
p7459
I16
sS'liquidate'
p7460
I7
sS'slow-walk'
p7461
I1
sS'football'
p7462
I1
sS'chaff'
p7463
I1
sS'toat'
p7464
I1
sS'discharge'
p7465
I30
sS'wassent'
p7466
I1
sS'ululate'
p7467
I2
sS'reassimilate'
p7468
I1
sS'teixeira'
p7469
I1
sS'withhold'
p7470
I45
sS'fasten'
p7471
I226
sS'smel'
p7472
I1
sS'rol'
p7473
I10
sS'rob'
p7474
I68
sS'focus'
p7475
I2048
sS'snip'
p7476
I29
sS'rot'
p7477
I16
sS'empathize'
p7478
I9
sS'discern'
p7479
I93
sS'charge'
p7480
I1182
sS'quash'
p7481
I11
sS'ponstan'
p7482
I2
sS'reassemble'
p7483
I11
sS'henderson'
p7484
I1
sS'coop'
p7485
I5
sS'advantage'
p7486
I1
sS'gravitate'
p7487
I46
sS'convoke'
p7488
I1
sS'masturbate'
p7489
I3
sS'waylay'
p7490
I6
sS'cook'
p7491
I373
sS'counterclaim'
p7492
I1
sS'cool'
p7493
I257
sS'level'
p7494
I348
sS'gatti'
p7495
I1
sS'enthuse'
p7496
I2
sS'encroach'
p7497
I15
sS'lever'
p7498
I34
sS'pumped-faked'
p7499
I1
sS'jogged/walked'
p7500
I1
sS'porn'
p7501
I2
sS'pore'
p7502
I41
sS'bake'
p7503
I47
sS'spindle'
p7504
I1
sS'substitute'
p7505
I28
sS'hestirr'
p7506
I1
sS'unshoulder'
p7507
I1
sS'debate'
p7508
I160
sS're-realize'
p7509
I1
sS'reply'
p7510
I715
sS'lem'
p7511
I1
sS'eye-ball'
p7512
I1
sS'water'
p7513
I169
sS'entertain'
p7514
I172
sS'eeriecne'
p7515
I1
sS'short-hopped'
p7516
I6
sS'tip-tap'
p7517
I1
sS'sleepwalk'
p7518
I2
sS'shove'
p7519
I2467
sS'rethink'
p7520
I17
sS'blotch'
p7521
I3
sS'weird'
p7522
I5
sS'outflank'
p7523
I4
sS'challange'
p7524
I1
sS'rededicate'
p7525
I13
sS'emerge'
p7526
I1723
sS'dumb'
p7527
I1
sS"n'tturn"
p7528
I1
sS'hade'
p7529
I2
sS'aquitt'
p7530
I1
sS'brighten'
p7531
I121
sS'thrum'
p7532
I46
sS'1st'
p7533
I1
sS'scam'
p7534
I1
sS'overthink'
p7535
I3
sS'post'
p7536
I390
sS'bench-pressed'
p7537
I2
sS'sledgehammer'
p7538
I1
sS'wicketkeeper'
p7539
I6
sS'concoct'
p7540
I8
sS'diagrame'
p7541
I1
sS'scan'
p7542
I1348
sS'ravage'
p7543
I53
sS'rodriguez'
p7544
I2
sS'unsheathe'
p7545
I81
sS'prey'
p7546
I5
sS'dowse'
p7547
I5
sS'prep'
p7548
I43
sS'reorder'
p7549
I4
sS'dismay'
p7550
I4
sS'kerry'
p7551
I1
sS'riot'
p7552
I14
sS'muffle'
p7553
I91
sS'despiste'
p7554
I1
sS'un-knot'
p7555
I1
sS'drown'
p7556
I266
sS'recapitalize'
p7557
I1
sS'sitre'
p7558
I1
sS'befuddle'
p7559
I4
sS'juda'
p7560
I1
sS'blurble'
p7561
I1
sS'ferry'
p7562
I35
sS'pickle'
p7563
I4
sS'cris-cross'
p7564
I1
sS'streak'
p7565
I228
sS'trump'
p7566
I16
sS'figure'
p7567
I2039
sS'unform'
p7568
I1
sS'brang'
p7569
I1
sS'stroke'
p7570
I1029
sS'cube'
p7571
I6
sS'enshroud'
p7572
I5
sS'unguard'
p7573
I1
sS'provoke'
p7574
I71
sS'iearn'
p7575
I1
sS'levy'
p7576
I10
sS'clonk'
p7577
I2
sS'cocktail'
p7578
I1
sS'clone'
p7579
I3
sS'forexample'
p7580
I1
sS'scoff'
p7581
I78
sS'interbreed'
p7582
I2
sS'sea-kayaked'
p7583
I1
sS'psychoanalyze'
p7584
I2
sS'flend'
p7585
I1
sS'play-act'
p7586
I1
sS'ibise'
p7587
I1
sS'reposition'
p7588
I58
sS'sluggard'
p7589
I1
sS'atttract'
p7590
I1
sS'amuse'
p7591
I65
sS'costco'
p7592
I1
sS'inform'
p7593
I376
sS'palms-up'
p7594
I1
sS'unfreeze'
p7595
I3
sS'odour'
p7596
I1
sS'refund'
p7597
I10
sS'blare'
p7598
I196
sS'worship'
p7599
I69
sS'needa'
p7600
I2
sS'swann'
p7601
I1
sS'epitomise'
p7602
I1
sS'swang'
p7603
I1
sS'expected-or'
p7604
I1
sS'offerr'
p7605
I1
sS'pervade'
p7606
I16
sS'ahh'
p7607
I5
sS're-collect'
p7608
I1
sS'cajole'
p7609
I14
sS'disseminate'
p7610
I4
sS'luken'
p7611
I1
sS'conquer'
p7612
I80
sS'disapear'
p7613
I1
sS'ahm'
p7614
I2
sS'rescind'
p7615
I30
sS'execute'
p7616
I149
sS'name'
p7617
I443
sS'stabilize'
p7618
I88
sS'cuzi'
p7619
I1
sS'down-slope'
p7620
I1
sS'flash-freeze'
p7621
I1
sS'half-fill'
p7622
I3
sS'synchronize'
p7623
I7
sS'realise'
p7624
I472
sS'shy'
p7625
I68
sS'shoke'
p7626
I1
sS'semifinal'
p7627
I2
sS'gape'
p7628
I207
sS'bloop'
p7629
I39
sS'torch'
p7630
I29
sS'sprinkle'
p7631
I129
sS'haverefuse'
p7632
I1
sS'whiplash'
p7633
I1
sS'farewell'
p7634
I1
sS'myrtle'
p7635
I2
sS'concur'
p7636
I20
sS'itchin'
p7637
I1
sS'profit'
p7638
I24
sS'keepup'
p7639
I1
sS'someplace'
p7640
I5
sS'ruck'
p7641
I1
sS'extrapolate'
p7642
I1
sS'collate'
p7643
I1
sS'stele'
p7644
I1
sS'she'
p7645
I1
sS'eagle'
p7646
I13
sS'froufrou'
p7647
I1
sS'hull'
p7648
I3
sS'dry-hump'
p7649
I3
sS'hulk'
p7650
I1
sS'hobble'
p7651
I165
sS'tranquilize'
p7652
I2
sS'delude'
p7653
I4
sS'oktoberfest'
p7654
I1
sS'recharge'
p7655
I15
sS'flare'
p7656
I455
sS'impose'
p7657
I120
sS'kneel'
p7658
I1245
sS'motion'
p7659
I1187
sS'turn'
p7660
I27367
sS'yuk'
p7661
I1
sS'place'
p7662
I4700
sS'brutalize'
p7663
I3
sS'nuffle'
p7664
I1
sS'half-close'
p7665
I2
sS'preach'
p7666
I92
sS'drye'
p7667
I1
sS'excommunicate'
p7668
I5
sS'sanchez'
p7669
I1
sS'feign'
p7670
I77
sS'suspend'
p7671
I146
sS'knock-knock'
p7672
I1
sS'insist'
p7673
I962
sS'array'
p7674
I1
sS'intone'
p7675
I8
sS'engineer'
p7676
I10
sS'haggle'
p7677
I17
sS'telethe'
p7678
I3
sS'molder'
p7679
I1
sS'persecute'
p7680
I1
sS'chemo'
p7681
I1
sS'white'
p7682
I1
sS'circa'
p7683
I1
sS'eeriment'
p7684
I5
sS'hue'
p7685
I1
sS'hug'
p7686
I1420
sS'spiral'
p7687
I114
sS'cope'
p7688
I75
sS'triple-knotted'
p7689
I1
sS'hum'
p7690
I365
sS'indoctrinate'
p7691
I1
sS'huh'
p7692
I5
sS'backpedal'
p7693
I48
sS'hut'
p7694
I3
sS'prissi'
p7695
I1
sS'grunt'
p7696
I732
sS'specify'
p7697
I16
sS'backstab'
p7698
I1
sS'bewitch'
p7699
I2
sS'ratchett'
p7700
I1
sS'carda'
p7701
I1
sS'leroy'
p7702
I1
sS'sere'
p7703
I1
sS'ooze'
p7704
I156
sS'posit'
p7705
I1
sS'pre'
p7706
I2
sS'half-drag'
p7707
I1
sS'kurri'
p7708
I1
sS'rend'
p7709
I6
sS'chloe'
p7710
I1
sS'must-as'
p7711
I1
sS'snorkele'
p7712
I2
sS'rent'
p7713
I288
sS'dragon'
p7714
I1
sS'pry'
p7715
I301
sS'co-incide'
p7716
I1
sS'silhouette'
p7717
I6
sS'laureen'
p7718
I1
sS'acclimatize'
p7719
I1
sS'hingham'
p7720
I1
sS'hospitalize'
p7721
I1
sS'fracture'
p7722
I50
sS'paraphrase'
p7723
I1
sS'blunt'
p7724
I13
sS'surf'
p7725
I39
sS'urge'
p7726
I712
sS'embitter'
p7727
I3
sS'botryti'
p7728
I1
sS'lafrentz'
p7729
I1
sS'resituate'
p7730
I2
sS'perserver'
p7731
I1
sS'unclothe'
p7732
I3
sS'clatter'
p7733
I127
sS'saunter'
p7734
I190
sS'annul'
p7735
I5
sS'misfire'
p7736
I30
sS'adopt'
p7737
I234
sS'him-such'
p7738
I1
sS'latel'
p7739
I1
sS'readjust'
p7740
I49
sS'fend-off'
p7741
I1
sS'side-hug'
p7742
I1
sS'pitino'
p7743
I1
sS'slope'
p7744
I66
sS'perch'
p7745
I162
sS'forage'
p7746
I20
sS'cheat'
p7747
I72
sS'reinvigorate'
p7748
I6
sS'taketh'
p7749
I3
sS'else-slam'
p7750
I1
sS'trespass'
p7751
I8
sS'shinge'
p7752
I1
sS'hack'
p7753
I154
sS'broach'
p7754
I25
sS'doublecheck'
p7755
I1
sS'trot'
p7756
I366
sS'over-brim'
p7757
I1
sS'shampooedand'
p7758
I1
sS'shimmer'
p7759
I268
sS'gulp'
p7760
I358
sS'woof'
p7761
I13
sS'swiv-ele'
p7762
I1
sS'partake'
p7763
I21
sS'deign'
p7764
I12
sS'wicket-keeper'
p7765
I1
sS'endevour'
p7766
I1
sS'tock'
p7767
I1
sS'doglegg'
p7768
I2
sS'reshoulder'
p7769
I1
sS'lighten'
p7770
I102
sS'outguess'
p7771
I1
sS'mistify'
p7772
I1
sS'festoon'
p7773
I5
sS'tailor'
p7774
I9
sS'dye'
p7775
I73
sS'hedge'
p7776
I9
sS'chugge'
p7777
I1
sS'&gt;'
p7778
I1
sS'torpedo'
p7779
I17
sS'reveal'
p7780
I1232
sS'scheulder'
p7781
I1
sS'outperform'
p7782
I5
sS'obliterate'
p7783
I32
sS'dumfound'
p7784
I1
sS'paper'
p7785
I3
sS'sternheisel'
p7786
I1
sS'unpin'
p7787
I8
sS'picnic'
p7788
I3
sS'pane'
p7789
I2
sS'bargain'
p7790
I13
sS'rma'
p7791
I1
sS'reveald'
p7792
I1
sS'tartarus'
p7793
I1
sS'detect'
p7794
I228
sS'mortgage'
p7795
I6
sS'bicyclist'
p7796
I1
sS'review'
p7797
I155
sS'faild'
p7798
I1
sS'hiss'
p7799
I908
sS'desgin'
p7800
I1
sS'jumped-know'
p7801
I1
sS'caucus'
p7802
I3
sS'wouldve'
p7803
I1
sS'overcharge'
p7804
I2
sS'comb'
p7805
I138
sS'come'
p7806
I30489
sS'foreshadow'
p7807
I4
sS'quiet'
p7808
I198
sS'contract'
p7809
I125
sS'her-and'
p7810
I2
sS'jitter'
p7811
I4
sS'sauvage'
p7812
I1
sS'color'
p7813
I20
sS'pow'
p7814
I1
sS'pot'
p7815
I14
sS'pop'
p7816
I1440
sS'poo'
p7817
I2
sS'pole'
p7818
I4
sS're-grip'
p7819
I2
sS'endeavor'
p7820
I11
sS'poll'
p7821
I4
sS'peng'
p7822
I1
sS'blow-dry'
p7823
I5
sS're-sheathe'
p7824
I4
sS'helicopter'
p7825
I1
sS'experienced-pure'
p7826
I1
sS'abstract'
p7827
I1
sS'exasperate'
p7828
I1
sS'reimburse'
p7829
I19
sS'poke-check'
p7830
I1
sS'padlock'
p7831
I7
sS'repond'
p7832
I1
sS'minister'
p7833
I7
sS'dribble'
p7834
I198
sS'pilot'
p7835
I28
sS'case'
p7836
I3
sS'shaft'
p7837
I6
sS'hightail'
p7838
I25
sS'amend'
p7839
I33
sS'mount'
p7840
I710
sS'celbrate'
p7841
I1
sS'cash'
p7842
I85
sS'unquarterbacklike'
p7843
I1
sS'cast'
p7844
I922
sS'reprivatize'
p7845
I1
sS'cass'
p7846
I1
sS'shingle'
p7847
I2
sS'ipid'
p7848
I1
sS'expertise'
p7849
I1
sS'mound'
p7850
I5
sS'pitch'
p7851
I838
sS'pwned'
p7852
I3
sS'vest'
p7853
I1
sS'yachtsmen'
p7854
I1
sS'contrive'
p7855
I1
sS'telephone'
p7856
I44
sS'parse'
p7857
I4
sS'mcknight'
p7858
I1
sS'clutter'
p7859
I13
sS'zip-cuff'
p7860
I1
sS'el-habashy'
p7861
I1
sS'helmet'
p7862
I6
sS'buya'
p7863
I1
sS'author'
p7864
I2
sS'reshape'
p7865
I13
sS'bowl'
p7866
I201
sS'trip'
p7867
I465
sS'sucker'
p7868
I2
sS'spatter'
p7869
I35
sS'fgound'
p7870
I1
sS'pump-faked'
p7871
I4
sS'smiled-close-mouth'
p7872
I1
sS'barefoot'
p7873
I3
sS'drous'
p7874
I1
sS're-raise'
p7875
I1
sS'nest'
p7876
I2
sS'ness'
p7877
I1
sS'weed'
p7878
I15
sS'tell-the'
p7879
I1
sS'weep'
p7880
I307
sS'cartoon'
p7881
I1
sS'gauranteed'
p7882
I1
sS'minimize'
p7883
I41
sS'olivia'
p7884
I1
sS'model'
p7885
I32
sS'reward'
p7886
I101
sS'justify'
p7887
I43
sS'triple-bogeyed'
p7888
I2
sS'clog'
p7889
I41
sS'nd'
p7890
I2
sS'clot'
p7891
I1
sS'lavish'
p7892
I13
sS'kill'
p7893
I2079
sS'polish'
p7894
I60
sS'colonise'
p7895
I1
sS'cloy'
p7896
I1
sS'halfway'
p7897
I24
sS'blow'
p7898
I2109
sS'overbid'
p7899
I1
sS'blot'
p7900
I47
sS'hot-foot'
p7901
I2
sS'hint'
p7902
I92
sS'rose'
p7903
I1
sS'heckel'
p7904
I1
sS'red-card'
p7905
I1
sS'except'
p7906
I1
sS'blog'
p7907
I6
sS'blod'
p7908
I1
sS'disrupt'
p7909
I72
sS'impound'
p7910
I3
sS'mahut'
p7911
I1
sS're-invaded'
p7912
I1
sS'manuever'
p7913
I1
sS're-warm'
p7914
I1
sS'recevy'
p7915
I1
sS're-type'
p7916
I1
sS'towel'
p7917
I53
sS'knuckleball'
p7918
I1
sS'understood-something'
p7919
I1
sS'snort'
p7920
I305
sS'hrought'
p7921
I1
sS'tower'
p7922
I200
sS'deduct'
p7923
I11
sS'subsidize'
p7924
I9
sS'interlock'
p7925
I9
sS'deduce'
p7926
I18
sS'table'
p7927
I2
sS'nuance'
p7928
I1
sS'x-rayed'
p7929
I2
sS'slice'
p7930
I470
sS'overstay'
p7931
I6
sS'renounce'
p7932
I38
sS'divvy'
p7933
I5
sS'slick'
p7934
I69
sS'jiggle'
p7935
I79
sS'resonate'
p7936
I84
sS'moor'
p7937
I7
sS'over-analyze'
p7938
I1
sS'pre-paid'
p7939
I1
sS'pastore'
p7940
I3
sS'unmask'
p7941
I8
sS'communicate'
p7942
I128
sS'slaughter'
p7943
I18
sS'outreach'
p7944
I1
sS'pooch'
p7945
I3
sS'fantasize'
p7946
I45
sS'immigrate'
p7947
I62
sS'prattle'
p7948
I16
sS'satnd'
p7949
I1
sS'tread'
p7950
I107
sS'jeez'
p7951
I1
sS'chivy'
p7952
I1
sS'jeer'
p7953
I12
sS'shrimp'
p7954
I1
sS'stand'
p7955
I18194
sS'equalize'
p7956
I99
sS'ow'
p7957
I3
sS'solarium'
p7958
I1
sS'pre-enlisted'
p7959
I1
sS'accredit'
p7960
I2
sS'embarass'
p7961
I1
sS'ard'
p7962
I1
sS'double-tap'
p7963
I1
sS'annotate'
p7964
I4
sS'forewarn'
p7965
I2
sS'determine'
p7966
I458
sS'syringe'
p7967
I1
sS'abrogate'
p7968
I1
sS'unpocket'
p7969
I1
sS'snowmen'
p7970
I1
sS'kyrah'
p7971
I1
sS'scry'
p7972
I1
sS'there'
p7973
I3
sS'half-turn'
p7974
I14
sS'expatriate'
p7975
I1
sS'overharvest'
p7976
I1
sS'condone'
p7977
I10
sS'carouse'
p7978
I2
sS'burry'
p7979
I2
sS'roust'
p7980
I7
sS'regard'
p7981
I221
sS'jus'
p7982
I1
sS'relit'
p7983
I3
sS'ullrich'
p7984
I1
sS'jut'
p7985
I110
sS'juz'
p7986
I3
sS'promote'
p7987
I269
sS'emancipate'
p7988
I2
sS'deejay'
p7989
I1
sS'roller-skated'
p7990
I2
sS'fabricate'
p7991
I7
sS'tiptoe'
p7992
I267
sS'preside'
p7993
I93
sS'starter'
p7994
I2
sS'reanalyze'
p7995
I2
sS'grasp'
p7996
I899
sS'grass'
p7997
I1
sS'mur-mure'
p7998
I1
sS'toilet'
p7999
I1
sS'taste'
p8000
I1199
sS'frighten'
p8001
I132
sS'trundle'
p8002
I37
sS'encompass'
p8003
I64
sS'pre-teens'
p8004
I1
sS'hasnt'
p8005
I1
sS'heather'
p8006
I1
sS'idiot'
p8007
I17
sS'deserve'
p8008
I466
sS'compel'
p8009
I35
sS'miko'
p8010
I1
sS'trash'
p8011
I26
sS'yo-yoe'
p8012
I3
sS'proliferate'
p8013
I3
sS'championship'
p8014
I2
sS'fillide'
p8015
I1
sS'separate'
p8016
I404
sS'finale'
p8017
I1
sS'carnegie'
p8018
I1
sS'subsume'
p8019
I1
sS'eanrn'
p8020
I1
sS'inlude'
p8021
I1
sS'recognise'
p8022
I185
sS'finaly'
p8023
I2
sS'wiff'
p8024
I1
sS'mcnamee'
p8025
I1
sS'invest'
p8026
I179
sS'curve'
p8027
I279
sS'fizzle'
p8028
I63
sS'dreamwalk'
p8029
I1
sS'diss'
p8030
I7
sS'lace'
p8031
I152
sS'rehang'
p8032
I1
sS'lack'
p8033
I247
sS'coach'
p8034
I307
sS'antagonize'
p8035
I12
sS'dish'
p8036
I128
sS'lacy'
p8037
I1
sS'brunch'
p8038
I2
sS'glimpse'
p8039
I164
sS'depressurize'
p8040
I1
sS'assuage'
p8041
I12
sS'half-talked'
p8042
I1
sS'program'
p8043
I18
sS'stochastic'
p8044
I1
sS'defuse'
p8045
I28
sS'un-holster'
p8046
I1
sS'fax'
p8047
I26
sS'fay'
p8048
I1
sS'pinch-ran'
p8049
I2
sS'induce'
p8050
I39
sS'ouch'
p8051
I21
sS'fan'
p8052
I243
sS'***'
p8053
I1
sS'fal'
p8054
I3
sS'reinjure'
p8055
I5
sS'lisp'
p8056
I1
sS'sanctify'
p8057
I1
sS'list'
p8058
I139
sS'intimidate'
p8059
I61
sS'flick'
p8060
I890
sS'tel'
p8061
I6
sS'tem'
p8062
I1
sS'restrengthen'
p8063
I1
sS'tee'
p8064
I45
sS'totaledn'
p8065
I1
sS'rate'
p8066
I24
sS'cuss'
p8067
I25
sS'pre-pack'
p8068
I1
sS'overachieve'
p8069
I1
sS'paralyse'
p8070
I4
sS'harden'
p8071
I68
sS'sue'
p8072
I401
sS'sud'
p8073
I1
sS'sub'
p8074
I7
sS'sun'
p8075
I4
sS'sum'
p8076
I37
sS'whimper'
p8077
I426
sS'crust'
p8078
I6
sS'brief'
p8079
I39
sS'overload'
p8080
I10
sS'crush'
p8081
I385
sS'tauten'
p8082
I3
sS're-lace'
p8083
I1
sS'musta'
p8084
I1
sS'intersect'
p8085
I32
sS'fingered-pound'
p8086
I1
sS'entwine'
p8087
I45
sS'pooh-pooh'
p8088
I3
sS'ruffle'
p8089
I120
sS'linemate'
p8090
I2
sS'wayman'
p8091
I1
sS'wild'
p8092
I1
sS'committ'
p8093
I1
sS'transfigure'
p8094
I3
sS'shoulda'
p8095
I4
sS'misinterpret'
p8096
I6
sS'infringe'
p8097
I11
sS'graph'
p8098
I2
sS'identity'
p8099
I1
sS'chain'
p8100
I10
sS'orecchiette'
p8101
I1
sS'screamimg'
p8102
I1
sS'imagine'
p8103
I985
sS'overfil'
p8104
I2
sS'somewhereatthebackof'
p8105
I1
sS'plonk'
p8106
I16
sS'snub'
p8107
I20
sS'\xe2\x88\x92'
p8108
I1
sS're-visit'
p8109
I1
sS'proceed'
p8110
I998
sS'faint'
p8111
I133
sS'wield'
p8112
I96
sS'irritate'
p8113
I33
sS'piggyback'
p8114
I1
sS'lakeside'
p8115
I1
sS'inlay'
p8116
I2
sS'garnish'
p8117
I6
sS're-figure'
p8118
I1
sS'minor'
p8119
I1
sS'flaw'
p8120
I1
sS'solder'
p8121
I2
sS'flap'
p8122
I200
sS're-elected'
p8123
I1
sS'mire'
p8124
I3
sS'flay'
p8125
I8
sS'flag'
p8126
I48
sS'keyhole'
p8127
I1
sS'stick'
p8128
I1993
sS'trash-talked'
p8129
I1
sS'amputate'
p8130
I4
sS'mellow'
p8131
I7
sS'gluck'
p8132
I1
sS'berth'
p8133
I40
sS'squish'
p8134
I36
sS'pero'
p8135
I1
sS'crab-walk'
p8136
I3
sS'gnaw'
p8137
I53
sS'palest'
p8138
I1
sS'pony'
p8139
I9
sS'duett'
p8140
I1
sS'conspire'
p8141
I28
sS'coerce'
p8142
I11
sS'arise'
p8143
I209
sS'cultivate'
p8144
I28
sS'allege'
p8145
I60
sS'extinguisher'
p8146
I1
sS'court'
p8147
I36
sS'irrigate'
p8148
I2
sS'goad'
p8149
I22
sS'overbalance'
p8150
I9
sS'rebalance'
p8151
I6
sS'goat'
p8152
I1
sS'mould'
p8153
I8
sS'sandwich'
p8154
I14
sS'okay'
p8155
I1
sS'abdicate'
p8156
I3
sS'emulate'
p8157
I22
sS'embalm'
p8158
I2
sS'preoccupy'
p8159
I8
sS'reflect'
p8160
I506
sS'sven'
p8161
I1
sS'disable'
p8162
I37
sS'numb'
p8163
I28
sS'capitalize'
p8164
I106
sS'palpitate'
p8165
I3
sS'??!'
p8166
I1
sS'rationalize'
p8167
I23
sS'devote'
p8168
I52
sS'stash'
p8169
I81
sS'ricochet'
p8170
I169
sS'shore'
p8171
I27
sS'shade'
p8172
I41
sS'retaliate'
p8173
I125
sS'???'
p8174
I2
sS'tumpang'
p8175
I1
sS're-insert'
p8176
I1
sS'flaunt'
p8177
I21
sS'reconnect'
p8178
I30
sS'unaccost'
p8179
I1
sS'flounce'
p8180
I13
sS'islam'
p8181
I1
sS'style'
p8182
I34
sS'glide'
p8183
I481
sS'pray'
p8184
I781
sS'purport'
p8185
I1
sS'co-ordinate'
p8186
I2
sS'resort'
p8187
I86
sS'prac'
p8188
I1
sS'scop'
p8189
I14
sS'environmentalise'
p8190
I1
sS'alter'
p8191
I155
sS'half-hum'
p8192
I1
sS'wouldn'
p8193
I2
sS'return'
p8194
I7877
sS'blike'
p8195
I1
sS'clambor'
p8196
I1
sS'woulda'
p8197
I2
sS'speechless'
p8198
I1
sS'miscommunicate'
p8199
I1
sS'belittle'
p8200
I10
sS'accumulate'
p8201
I17
sS'refresh'
p8202
I35
sS'disciple'
p8203
I1
sS'ryker'
p8204
I1
sS'himeslf'
p8205
I1
sS'jefferson'
p8206
I1
sS'malfunction'
p8207
I15
sS'injest'
p8208
I1
sS'weight'
p8209
I10
sS'recapitulate'
p8210
I1
sS'expect'
p8211
I1203
sS'inflict'
p8212
I54
sS'lola'
p8213
I1
sS'cpuld'
p8214
I1
sS'machismo-ed'
p8215
I1
sS'disquiet'
p8216
I1
sS'kira'
p8217
I1
sS'loll'
p8218
I69
sS'hearken'
p8219
I2
sS'depsite'
p8220
I1
sS're-fill'
p8221
I1
sS're-file'
p8222
I1
sS'gut'
p8223
I28
sS'differ'
p8224
I38
sS'disinfect'
p8225
I6
sS'reconfigure'
p8226
I5
sS'teach'
p8227
I1211
sS'generate'
p8228
I174
sS'flinge'
p8229
I1
sS'blister'
p8230
I22
sS're-mount'
p8231
I2
sS'thread'
p8232
I109
sS'stampede'
p8233
I12
sS'misreport'
p8234
I1
sS'threat'
p8235
I3
sS'debouch'
p8236
I1
sS'delegitimize'
p8237
I1
sS'ding'
p8238
I33
sS'dine'
p8239
I98
sS'dind'
p8240
I1
sS'blush'
p8241
I420
sS'feel'
p8242
I20990
sS'relate'
p8243
I74
sS'cross-stitch'
p8244
I1
sS'dink'
p8245
I2
sS'fancy'
p8246
I51
sS'feet'
p8247
I1
sS'uninvit'
p8248
I1
sS'plummet'
p8249
I208
sS'notify'
p8250
I70
sS'wench'
p8251
I1
sS'blank'
p8252
I13
sS'moan'
p8253
I2049
sS'temperature'
p8254
I1
sS'script'
p8255
I2
sS'interact'
p8256
I56
sS'grime'
p8257
I1
sS'comfy'
p8258
I1
sS'pitter'
p8259
I1
sS'lobby'
p8260
I88
sS'swarm'
p8261
I218
sS'storm'
p8262
I404
sS'nad'
p8263
I1
sS'ventricle'
p8264
I1
sS'store'
p8265
I111
sS'segue'
p8266
I15
sS'aprize'
p8267
I1
sS'fidget'
p8268
I142
sS'rifle'
p8269
I93
sS'officiate'
p8270
I14
sS'reliever'
p8271
I1
sS'dunvega'
p8272
I1
sS'throttle'
p8273
I51
sS'decampment'
p8274
I1
sS'double'
p8275
I846
sS'riyan'
p8276
I1
sS'kink'
p8277
I1
sS'medicate'
p8278
I3
sS'stall'
p8279
I426
sS'cuff'
p8280
I56
sS'dane'
p8281
I1
sS'amass'
p8282
I35
sS'igot'
p8283
I1
sS'exert'
p8284
I34
sS'strengthen'
p8285
I182
sS'recrunch'
p8286
I1
sS'windmil'
p8287
I5
sS'ingnore'
p8288
I1
sS'engulf'
p8289
I257
sS'procide'
p8290
I1
sS'gall'
p8291
I5
sS'caerwyn'
p8292
I1
sS'remodel'
p8293
I21
sS'toughen'
p8294
I14
sS'check'
p8295
I3358
sS'nighty'
p8296
I1
sS'co-developed'
p8297
I1
sS'port'
p8298
I1
sS'moist'
p8299
I2
sS'riff'
p8300
I3
sS'buff'
p8301
I9
sS'up-end'
p8302
I1
sS'populate'
p8303
I13
sS'customize'
p8304
I5
sS'half-deflect'
p8305
I1
sS'inconvenience'
p8306
I1
sS'reach'
p8307
I14873
sS'palpate'
p8308
I1
sS'splat'
p8309
I4
sS'eloit'
p8310
I1
sS're-ascend'
p8311
I1
sS'dive-bombed'
p8312
I1
sS'co-ed'
p8313
I1
sS'cureve'
p8314
I1
sS'notch'
p8315
I87
sS'liberate'
p8316
I38
sS'niggle'
p8317
I7
sS'leaderless'
p8318
I1
sS'barter'
p8319
I14
sS'stumpel'
p8320
I1
sS'stubble'
p8321
I1
sS'aggravate'
p8322
I15
sS'predecease'
p8323
I1
sS'shld'
p8324
I1
sS'mosey'
p8325
I19
sS'reconnoiter'
p8326
I12
sS'ien'
p8327
I1
sS'blert'
p8328
I1
sS'discuss-for'
p8329
I1
sS'hip'
p8330
I1
sS'shepherd'
p8331
I26
sS'hit'
p8332
I10082
sS'invoke'
p8333
I45
sS'babble'
p8334
I38
sS'multimillionaire'
p8335
I1
sS'coty'
p8336
I1
sS'whistle'
p8337
I523
sS'hie'
p8338
I1
sS'unbelt'
p8339
I3
sS'deaden'
p8340
I8
sS'reprint'
p8341
I5
sS'adulthood'
p8342
I5
sS'luton'
p8343
I1
sS'grahish'
p8344
I1
sS'investigate'
p8345
I248
sS'push-start'
p8346
I1
sS'cringe'
p8347
I379
sS'hadto'
p8348
I1
sS'forego'
p8349
I6
sS'signify'
p8350
I40
sS'de-seed'
p8351
I1
sS'dump'
p8352
I579
sS'three-putted'
p8353
I32
sS'carpool'
p8354
I2
sS'barb'
p8355
I3
sS'bare'
p8356
I179
sS'barf'
p8357
I5
sS'bark'
p8358
I407
sS'arm'
p8359
I25
sS'visualize'
p8360
I53
sS'blurt'
p8361
I82
sS'inebriate'
p8362
I1
sS'prooduce'
p8363
I1
sS'misjudge'
p8364
I43
sS'creme'
p8365
I1
sS'enwrap'
p8366
I2
sS'auto-detect'
p8367
I1
sS'blurb'
p8368
I1
sS'regrasp'
p8369
I1
sS'high-sticked'
p8370
I3
sS'imbibe'
p8371
I7
sS'sole'
p8372
I4
sS'pinch-hit'
p8373
I26
sS'outfit'
p8374
I14
sS'hessitate'
p8375
I1
sS'succeed'
p8376
I408
sS'franchise'
p8377
I1
sS'condo'
p8378
I1
sS'prelude'
p8379
I1
sS'license'
p8380
I22
sS'oversee'
p8381
I155
sS'long-on'
p8382
I1
sS'un-pause'
p8383
I2
sS'interrogate'
p8384
I20
sS'overset'
p8385
I1
sS're-draw'
p8386
I2
sS'sheathe'
p8387
I121
sS'reside'
p8388
I61
sS'reacquaint'
p8389
I6
sS'ex-priest'
p8390
I1
sS'showerd'
p8391
I1
sS'whelp'
p8392
I1
sS'sweep'
p8393
I1251
sS'harbour'
p8394
I4
sS'weasel'
p8395
I2
sS'theirs-widow'
p8396
I1
sS'rave'
p8397
I54
sS'bolster'
p8398
I50
sS'decline'
p8399
I537
sS'pv'
p8400
I1
sS'tart'
p8401
I2
sS'dub'
p8402
I36
sS'overlook'
p8403
I212
sS'whop'
p8404
I1
sS'whom'
p8405
I1
sS'pa'
p8406
I1
sS'brick'
p8407
I5
sS'pm'
p8408
I2
sS'referee'
p8409
I6
sS'1860'
p8410
I1
sS'cinch'
p8411
I54
sS'demand'
p8412
I936
sS'livery'
p8413
I1
sS'heighten'
p8414
I30
sS'boast'
p8415
I114
sS'accomodate'
p8416
I3
sS'corrode'
p8417
I1
sS'negociate'
p8418
I1
sS'barricade'
p8419
I27
sS'kick'
p8420
I3528
sS'graffiti'
p8421
I1
sS'exclude'
p8422
I13
sS'pooh-poohed'
p8423
I1
sS'u-turned'
p8424
I1
sS'rip'
p8425
I1512
sS'ecstasy'
p8426
I3
sS'rim'
p8427
I40
sS'impersonate'
p8428
I8
sS'quail'
p8429
I8
sS'rid'
p8430
I69
sS'rie'
p8431
I1
sS'rib'
p8432
I8
sS'americanize'
p8433
I2
sS'chauffeur'
p8434
I3
sS'freak-dance'
p8435
I1
sS'apear'
p8436
I1
sS'shirk'
p8437
I7
sS'lachenmann'
p8438
I1
sS'sliver'
p8439
I3
sS'recalibrate'
p8440
I2
sS'negotiate'
p8441
I216
sS'cement'
p8442
I51
sS'hand-wash'
p8443
I1
sS'impede'
p8444
I20
sS'birch'
p8445
I2
sS'hand-delivered'
p8446
I2
sS'lower'
p8447
I2087
sS'noodle'
p8448
I2
sS'earmark'
p8449
I2
sS'cheep'
p8450
I2
sS'cheer'
p8451
I582
sS'edge'
p8452
I487
sS'riffle'
p8453
I13
sS'channel-flipped'
p8454
I1
sS'repressurize'
p8455
I1
sS'frizz'
p8456
I4
sS'endeavour'
p8457
I3
sS'presume'
p8458
I54
sS'scaby'
p8459
I1
sS're-gather'
p8460
I1
sS'tweak'
p8461
I47
sS'reinstate'
p8462
I23
sS'divot'
p8463
I1
sS'vindicate'
p8464
I4
sS'advocate'
p8465
I15
sS'ribegan'
p8466
I1
sS'bilonick'
p8467
I1
sS'awaken'
p8468
I133
sS'garrote'
p8469
I2
sS'seperate'
p8470
I4
sS'remindeed'
p8471
I1
sS'systematically'
p8472
I1
sS'confront'
p8473
I180
sS'ignore'
p8474
I2069
sS'collect'
p8475
I819
sS'distrust'
p8476
I24
sS'nipple'
p8477
I1
sS'entice'
p8478
I55
sS'pithe'
p8479
I1
sS'transmute'
p8480
I2
sS'upshift'
p8481
I1
sS'emanate'
p8482
I101
sS'incriminate'
p8483
I5
sS'thr'
p8484
I2
sS'litter'
p8485
I122
sS'catalyze'
p8486
I1
sS'uppercut'
p8487
I1
sS'clown'
p8488
I3
sS'vacate'
p8489
I29
sS'modernize'
p8490
I18
sS'retry'
p8491
I4
sS'debrief'
p8492
I6
sS'analize'
p8493
I1
sS'prop'
p8494
I429
sS'inoculate'
p8495
I3
sS'prom'
p8496
I4
sS'retro'
p8497
I1
sS'spange'
p8498
I1
sS'anne'
p8499
I39
sS'prod'
p8500
I131
sS'doublefault'
p8501
I3
sS'squeed'
p8502
I1
sS'over-react'
p8503
I3
sS'two-putted'
p8504
I20
sS'zombie'
p8505
I1
sS'tinker'
p8506
I15
sS'out-maneuver'
p8507
I1
sS'elore'
p8508
I22
sS'row'
p8509
I67
sS'range'
p8510
I123
sS'auntie'
p8511
I1
sS'mommy'
p8512
I2
sS'heedless'
p8513
I1
sS'holster'
p8514
I41
sS'curtsy'
p8515
I46
sS'stench'
p8516
I2
sS'gouge'
p8517
I34
sS'scrunch'
p8518
I98
sS'acquiesce'
p8519
I41
sS'sequence'
p8520
I4
sS'question'
p8521
I476
sS'work/worked'
p8522
I2
sS'long'
p8523
I215
sS'etch'
p8524
I49
sS'analyze'
p8525
I110
sS'plunge'
p8526
I833
sS'filet'
p8527
I2
sS'dimaggio'
p8528
I1
sS'baptise'
p8529
I1
sS'everywhere-and'
p8530
I1
sS'glamour'
p8531
I1
sS'crank'
p8532
I206
sS'usurp'
p8533
I4
sS'upright'
p8534
I106
sS'crane'
p8535
I150
sS'mystify'
p8536
I5
sS'w/no'
p8537
I1
sS'consist'
p8538
I181
sS'incase'
p8539
I2
sS'elide'
p8540
I1
sS'redress'
p8541
I10
sS'hogtie'
p8542
I2
sS'cartwheel'
p8543
I8
sS'highlight'
p8544
I178
sS'reformat'
p8545
I2
sS'x-ray'
p8546
I3
sS'reye'
p8547
I1
sS'steepen'
p8548
I6
sS'freak'
p8549
I130
sS'pluff'
p8550
I1
sS'sublet'
p8551
I3
sS'co-starred'
p8552
I1
sS'all-find'
p8553
I1
sS'rally'
p8554
I349
sS'knewthat'
p8555
I1
sS'frog-march'
p8556
I3
sS'taser'
p8557
I2
sS'extended-snap'
p8558
I1
sS'nick'
p8559
I44
sS'gag-cough'
p8560
I1
sS'gra'
p8561
I1
sS'ferment'
p8562
I2
sS'mock'
p8563
I52
sS'dale'
p8564
I1
sS'develope'
p8565
I1
sS'mustard'
p8566
I1
sS'chirp'
p8567
I109
sS'puncture'
p8568
I62
sS'wrinkle'
p8569
I122
sS'sightsee'
p8570
I1
sS'relaunch'
p8571
I4
sS'sufferr'
p8572
I1
sS'we'
p8573
I2
sS'liquefy'
p8574
I10
sS'remit'
p8575
I2
sS'distain'
p8576
I1
sS'tantalise'
p8577
I1
sS'scroll'
p8578
I130
sS'proximate'
p8579
I1
sS'cutesier'
p8580
I1
sS'wrestle'
p8581
I286
sS'ede'
p8582
I1
sS'lowland'
p8583
I1
sS'dispel'
p8584
I38
sS'gang'
p8585
I9
sS'self-polices'
p8586
I1
sS'reinsert'
p8587
I16
sS'uphold'
p8588
I87
sS'roshan'
p8589
I1
sS'floss'
p8590
I6
sS'repackage'
p8591
I1
sS'stable'
p8592
I4
sS'breach'
p8593
I57
sS'include'
p8594
I1238
sS'rag'
p8595
I1
sS'two-nil'
p8596
I1
sS'ladle'
p8597
I31
sS'left-footed'
p8598
I1
sS'revitalise'
p8599
I1
sS'spool'
p8600
I4
sS'reinterpret'
p8601
I3
sS'spoon'
p8602
I63
sS'foretell'
p8603
I6
sS'spook'
p8604
I38
sS'spoof'
p8605
I4
sS'posture'
p8606
I4
sS'redistribute'
p8607
I2
sS'ym-ed'
p8608
I1
sS'quintuple'
p8609
I2
sS'oculd'
p8610
I1
sS'gullible'
p8611
I1
sS'idealize'
p8612
I1
sS'outdo'
p8613
I18
sS'misplay'
p8614
I31
sS'sodomize'
p8615
I7
sS'admittt'
p8616
I1
sS'underboss'
p8617
I1
sS'fast-walk'
p8618
I1
sS'pleat'
p8619
I1
sS'chastise'
p8620
I51
sS'isolate'
p8621
I42
sS'fold'
p8622
I1180
sS'outblare'
p8623
I1
sS'plead'
p8624
I446
sS'protrude'
p8625
I134
sS're-balance'
p8626
I1
sS'obey'
p8627
I337
sS'professionalize'
p8628
I1
sS'help-know'
p8629
I1
sS'showcase'
p8630
I28
sS'supersize'
p8631
I2
sS'high-tone'
p8632
I1
sS'relent'
p8633
I170
sS'attire'
p8634
I1
sS'relocate'
p8635
I62
sS'cozy'
p8636
I2
sS'bulimia'
p8637
I1
sS'sough'
p8638
I3
sS'presell'
p8639
I1
sS'gloam'
p8640
I1
sS'foreclose'
p8641
I5
sS'explore'
p8642
I381
sS'gloat'
p8643
I16
sS'detritus'
p8644
I1
sS'metre'
p8645
I5
sS'back-jerk'
p8646
I1
sS'esque'
p8647
I1
sS'rhombus'
p8648
I1
sS'downstate'
p8649
I1
sS'requite'
p8650
I1
sS'sponge-painted'
p8651
I1
sS'shovel'
p8652
I73
sS'heart'
p8653
I2
sS'duct'
p8654
I1
sS'tryde'
p8655
I1
sS'kade'
p8656
I2
sS'defense'
p8657
I1
sS'motor'
p8658
I46
sS'duck'
p8659
I1340
sS'apply'
p8660
I687
sS'redo'
p8661
I26
sS'ape'
p8662
I2
sS'usf'
p8663
I1
sS'use'
p8664
I6935
sS'stream'
p8665
I359
sS'fen'
p8666
I1
sS'doodle'
p8667
I22
sS'fel'
p8668
I5
sS'frog'
p8669
I3
sS'procrastinate'
p8670
I7
sS'sleptover'
p8671
I1
sS'fer'
p8672
I1
sS'nontender'
p8673
I1
sS'timetable'
p8674
I1
sS'quitley'
p8675
I1
sS'unbury'
p8676
I2
sS'sort'
p8677
I165
sS'cornetist'
p8678
I1
sS'pitter-patter'
p8679
I1
sS'self-combust'
p8680
I1
sS'impress'
p8681
I165
sS'half-bury'
p8682
I1
sS'cooperate'
p8683
I121
sS'sore'
p8684
I1
sS'lidless'
p8685
I1
sS'recount'
p8686
I144
sS'annoy'
p8687
I122
sS'wtih'
p8688
I2
sS'thwack'
p8689
I10
sS'augment'
p8690
I9
sS'linger'
p8691
I624
sS'lumber'
p8692
I115
sS'resprout'
p8693
I1
sS'dissolve'
p8694
I141
sS'proof'
p8695
I3
sS'tat'
p8696
I1
sS'tap'
p8697
I1044
sS'thirsty'
p8698
I2
sS're-set'
p8699
I2
sS'tax'
p8700
I11
sS'rapt'
p8701
I1
sS'definetley'
p8702
I1
sS'tag'
p8703
I85
sS'condescend'
p8704
I1
sS'tab'
p8705
I5
sS'tan'
p8706
I13
sS'bluestrip'
p8707
I1
sS'rape'
p8708
I68
sS'sis'
p8709
I1
sS'sir'
p8710
I7
sS'sip'
p8711
I561
sS'memorize'
p8712
I69
sS'sit'
p8713
I17622
sS'handover'
p8714
I1
sS'struggler'
p8715
I1
sS'eahhhhrn'
p8716
I1
sS'patronize'
p8717
I6
sS'sic'
p8718
I4
sS'privatize'
p8719
I3
sS'sid'
p8720
I1
sS'resurge'
p8721
I2
sS'panic'
p8722
I383
sS'chri'
p8723
I1
sS'sweat'
p8724
I139
sS'exemplify'
p8725
I9
sS'tension'
p8726
I1
sS'attend'
p8727
I1401
sS'hazard'
p8728
I6
sS'babysat'
p8729
I8
sS'ohmigod'
p8730
I2
sS'discomfort'
p8731
I1
sS'tack'
p8732
I64
sS'wrist'
p8733
I11
sS'babysan'
p8734
I1
sS'taco'
p8735
I2
sS'zombie-walk'
p8736
I1
sS'light'
p8737
I1753
sS'unhitch'
p8738
I8
sS'budge'
p8739
I233
sS'garbhah'
p8740
I1
sS'\xef\xac\x81nish'
p8741
I1
sS'half-crawl'
p8742
I1
sS'ocur'
p8743
I1
sS'beguile'
p8744
I3
sS'quake'
p8745
I59
sS'double-time'
p8746
I2
sS'138'
p8747
I1
sS'badger'
p8748
I13
sS'lounge'
p8749
I143
sS'inaugurate'
p8750
I6
sS'reeve'
p8751
I4
sS'say-or'
p8752
I1
sS'pellet'
p8753
I2
sS'lech'
p8754
I1
sS'restrain'
p8755
I181
sS'choose'
p8756
I1545
sS'turban'
p8757
I1
sS'redhead'
p8758
I1
sS'dget'
p8759
I1
sS're-target'
p8760
I1
sS'flex'
p8761
I298
sS'crash'
p8762
I1578
sS're-enter'
p8763
I46
sS'flour'
p8764
I1
sS'practice'
p8765
I449
sS'flet'
p8766
I1
sS'flout'
p8767
I4
sS'road-tested'
p8768
I1
sS'emerald'
p8769
I1
sS'flee'
p8770
I1032
sS'pak'
p8771
I1
sS'decapitate'
p8772
I22
sS'trae'
p8773
I1
sS'retreit'
p8774
I1
sS'ratatouille'
p8775
I1
sS'edit'
p8776
I86
sS'three-bet'
p8777
I1
sS'feast'
p8778
I45
sS'soeed'
p8779
I1
sS'fuzz'
p8780
I1
sS'fiddle'
p8781
I113
sS'trap'
p8782
I36
sS'cocoon'
p8783
I8
sS're-enrolled'
p8784
I1
sS're-grow'
p8785
I1
sS're-knotted'
p8786
I1
sS'bogey'
p8787
I122
sS'double-team'
p8788
I10
sS'tabulate'
p8789
I2
sS'ninja-pay'
p8790
I1
sS'ejaculate'
p8791
I13
sS'couldget'
p8792
I1
sS'yellowtail'
p8793
I1
sS'double-check'
p8794
I41
sS'impart'
p8795
I23
sS'sacrifice'
p8796
I95
sS'disclose'
p8797
I103
sS'magically'
p8798
I1
sS'eighty'
p8799
I1
sS'heartbreaker'
p8800
I1
sS'intersperse'
p8801
I4
sS'dumpster'
p8802
I1
sS'implode'
p8803
I51
sS'rejoice'
p8804
I35
sS'dr.opped'
p8805
I1
sS'overtake'
p8806
I239
sS'g'
p8807
I1
sS'substantiate'
p8808
I1
sS'leftie'
p8809
I1
sS'illicit'
p8810
I1
sS'hench'
p8811
I1
sS'homelessness'
p8812
I1
sS'uproot'
p8813
I8
sS'out-touch'
p8814
I1
sS'rubberneck'
p8815
I2
sS'plainly'
p8816
I1
sS'co-founded'
p8817
I20
sS'echo'
p8818
I971
sS'crcccdd'
p8819
I1
sS'endgame'
p8820
I1
sS'twaz'
p8821
I1
sS'droop'
p8822
I92
sS're-fasten'
p8823
I2
sS'accent'
p8824
I20
sS'panike'
p8825
I1
sS'snore'
p8826
I90
sS'flip-flop'
p8827
I1
sS'fly-hacked'
p8828
I1
sS'drool'
p8829
I59
sS'wire-tie'
p8830
I1
sS'half-kneel'
p8831
I2
sS'boil'
p8832
I159
sS'shell'
p8833
I35
sS'greenlight'
p8834
I1
sS'simulate'
p8835
I18
sS'diminish'
p8836
I52
sS'commence'
p8837
I77
sS'elope'
p8838
I11
sS'probe'
p8839
I79
sS'sed'
p8840
I1
sS'elongate'
p8841
I13
sS'sculpture'
p8842
I3
sS'yodel'
p8843
I3
sS'crucify'
p8844
I7
sS'clip'
p8845
I159
sS'splatter'
p8846
I136
sS'half-scramble'
p8847
I1
sS'rear-ended'
p8848
I2
sS'blip'
p8849
I5
sS'outstrip'
p8850
I2
sS'pinbal'
p8851
I10
sS'geotagg'
p8852
I1
sS'luminesce'
p8853
I1
sS'angle'
p8854
I187
sS'rout'
p8855
I3
sS'lope'
p8856
I76
sS'hand-dry'
p8857
I1
sS'divert'
p8858
I63
sS'unspool'
p8859
I6
sS'clash'
p8860
I144
sS'centre'
p8861
I2
sS'siphon'
p8862
I9
sS'filch'
p8863
I3
sS'delve'
p8864
I73
sS'clasp'
p8865
I358
sS'deny'
p8866
I409
sS'refract'
p8867
I5
sS'awaoke'
p8868
I1
sS'unholster'
p8869
I7
sS'fountain'
p8870
I6
sS'dent'
p8871
I13
sS'pipe'
p8872
I21
sS'hi'
p8873
I1
sS'fowler'
p8874
I1
sS'bput'
p8875
I1
sS'pleaser'
p8876
I1
sS'headquarter'
p8877
I1
sS'countersue'
p8878
I16
sS'cirrhotic'
p8879
I1
sS'utter'
p8880
I152
sS'fear'
p8881
I671
sS'overflow'
p8882
I38
sS'flat-lined'
p8883
I1
sS'outpol'
p8884
I4
sS'much'
p8885
I1
sS'manacle'
p8886
I4
sS'cache'
p8887
I1
sS'rosenthal'
p8888
I1
sS'reminisce'
p8889
I48
sS're-echo'
p8890
I2
sS'inhabit'
p8891
I21
sS'he'
p8892
I1
sS'outsell'
p8893
I3
sS'prosecute'
p8894
I37
sS'winterize'
p8895
I1
sS'up-even'
p8896
I1
sS'topple'
p8897
I364
sS'skimp'
p8898
I1
sS'dope'
p8899
I2
sS'massacre'
p8900
I11
sS'outpitch'
p8901
I3
sS'penetrate'
p8902
I273
sS'spur'
p8903
I144
sS'swish'
p8904
I118
sS'bisect'
p8905
I15
sS'broght'
p8906
I2
sS'qa'
p8907
I1
sS'thrive'
p8908
I126
sS'ascertain'
p8909
I23
sS'editorialize'
p8910
I4
sS'view'
p8911
I291
sS'hmmphed'
p8912
I1
sS'ebb'
p8913
I62
sS'expel'
p8914
I47
sS'outgun'
p8915
I2
sS're-hook'
p8916
I1
sS'nightgown'
p8917
I2
sS'high-trail'
p8918
I1
sS'areivve'
p8919
I1
sS'still'
p8920
I204
sS'closet'
p8921
I1
sS'will/was/are'
p8922
I1
sS'diverge'
p8923
I20
sS'musky'
p8924
I1
sS'favor'
p8925
I197
sS'viper'
p8926
I1
sS'damper'
p8927
I1
sS'stood-but'
p8928
I1
sS'linebacker'
p8929
I2
sS'barbeque'
p8930
I1
sS'jot'
p8931
I64
sS'eect'
p8932
I126
sS'hutu'
p8933
I1
sS'cross-examine'
p8934
I3
sS'job'
p8935
I1
sS'spoil'
p8936
I68
sS'jog'
p8937
I450
sS'bronc'
p8938
I1
sS'wallace'
p8939
I1
sS'committt'
p8940
I1
sS'outshoot'
p8941
I23
sS'broadside'
p8942
I7
sS'grain'
p8943
I1
sS'atleast'
p8944
I1
sS'tousle'
p8945
I20
sS'canopy'
p8946
I3
sS'graid'
p8947
I1
sS're-make'
p8948
I1
sS'wald'
p8949
I1
sS'wale'
p8950
I1
sS'almostpass'
p8951
I1
sS'uncleat'
p8952
I1
sS'elkin'
p8953
I1
sS'wall'
p8954
I12
sS'shoulder-slam'
p8955
I1
sS'immunize'
p8956
I1
sS'makin'
p8957
I1
sS'walk'
p8958
I21526
sS'subscribe'
p8959
I6
sS'respect'
p8960
I135
sS'billus'
p8961
I1
sS'tutor'
p8962
I27
sS'gabble'
p8963
I2
sS'bbq'
p8964
I1
sS'jaden'
p8965
I1
sS'mike'
p8966
I3
sS'inbound'
p8967
I23
sS'f**k'
p8968
I52
sS'twinge'
p8969
I3
sS'yeild'
p8970
I1
sS'nicker'
p8971
I4
sS'overturn'
p8972
I90
sS'present'
p8973
I538
sS'horsewhip'
p8974
I1
sS'h8d'
p8975
I1
sS'wilt'
p8976
I47
sS'align'
p8977
I22
sS'will'
p8978
I238
sS'beanball'
p8979
I1
sS'ensconce'
p8980
I3
sS'wile'
p8981
I1
sS'~'
p8982
I3
sS'rename'
p8983
I36
sS'layer'
p8984
I31
sS'major-league'
p8985
I1
sS'apprehend'
p8986
I14
sS'thut'
p8987
I1
sS'outspent'
p8988
I6
sS'disapprove'
p8989
I8
sS'overhire'
p8990
I1
sS'alsowant'
p8991
I1
sS'snuck'
p8992
I236
sS'thud'
p8993
I147
sS'ava'
p8994
I1
sS'whore'
p8995
I4
sS'nbspen'
p8996
I1
sS'subcontract'
p8997
I1
sS'cross'
p8998
I2735
sS'unite'
p8999
I15
sS'inch'
p9000
I453
sS'getr'
p9001
I1
sS'crose'
p9002
I1
sS'schill'
p9003
I1
sS'disorient'
p9004
I19
sS'slave'
p9005
I3
sS'see-sawed'
p9006
I1
sS'premiere'
p9007
I12
sS'recline'
p9008
I94
sS'disagree'
p9009
I95
sS'asend'
p9010
I1
sS'pedal'
p9011
I36
sS'whale'
p9012
I2
sS'collar'
p9013
I11
sS'arse'
p9014
I1
sS'tyne'
p9015
I1
sS'gutter'
p9016
I2
sS'expressly-from'
p9017
I1
sS'overwork'
p9018
I2
sS'scissor'
p9019
I13
sS'twirl'
p9020
I235
sS'outgrow'
p9021
I16
sS'decisionfound'
p9022
I1
sS'brush-stroked'
p9023
I1
sS'carrie'
p9024
I1
sS'rocket'
p9025
I109
sS'wren'
p9026
I3
sS'pressurise'
p9027
I1
sS'obtain'
p9028
I262
sS'replenish'
p9029
I18
sS'distend'
p9030
I1
sS'smite'
p9031
I16
sS'rapid'
p9032
I1
sS'console'
p9033
I95
sS'supply'
p9034
I138
sS'sky'
p9035
I1
sS're-sent'
p9036
I1
sS'rezai'
p9037
I2
sS'halo'
p9038
I5
sS'back-fired'
p9039
I1
sS'ski'
p9040
I64
sS'enact'
p9041
I27
sS'knob'
p9042
I1
sS're-call'
p9043
I1
sS'masquerade'
p9044
I12
sS'term'
p9045
I19
sS'know'
p9046
I16817
sS'knot'
p9047
I67
sS'press'
p9048
I3344
sS'redesign'
p9049
I22
sS'trancribe'
p9050
I1
sS'sneak-volleyed'
p9051
I1
sS'studly'
p9052
I1
sS'putt-putt'
p9053
I1
sS'cutlet'
p9054
I1
sS'hitchhike'
p9055
I29
sS'construe'
p9056
I3
sS'clutch'
p9057
I801
sS'uncuff'
p9058
I1
sS'noticed-his'
p9059
I1
sS'exceed'
p9060
I86
sS'tumble'
p9061
I877
sS'windward'
p9062
I3
sS'unflipp'
p9063
I1
sS'merse'
p9064
I1
sS'melee'
p9065
I1
sS'holler'
p9066
I141
sS'persue'
p9067
I1
sS'ablaze'
p9068
I10
sS'simplemind'
p9069
I1
sS'leaden'
p9070
I1
sS'inist'
p9071
I1
sS'leaf'
p9072
I29
sS'lead'
p9073
I8245
sS'leak'
p9074
I109
sS'leah'
p9075
I1
sS'lean'
p9076
I6125
sS'14th'
p9077
I1
sS'leap'
p9078
I2525
sS'locate'
p9079
I223
sS'haywood'
p9080
I1
sS'back-paddle'
p9081
I1
sS'slur'
p9082
I22
sS'slut'
p9083
I2
sS'reengage'
p9084
I1
sS'slum'
p9085
I3
sS'hostage'
p9086
I1
sS'copan'
p9087
I1
sS'paste'
p9088
I83
sS'slug'
p9089
I69
sS'raise'
p9090
I4832
sS'throng'
p9091
I11
sS'tsked'
p9092
I8
sS'incline'
p9093
I58
sS'saddle'
p9094
I53
sS'column'
p9095
I1
sS'stir-fry'
p9096
I2
sS'dodgertown'
p9097
I1
sS'surge'
p9098
I645
sS'swear'
p9099
I782
sS'ashy'
p9100
I1
sS'alone-just'
p9101
I1
sS'double-fault'
p9102
I3
sS'bugle'
p9103
I5
sS'own'
p9104
I670
sS'owe'
p9105
I269
sS'sqare'
p9106
I1
sS'weather'
p9107
I45
sS'promise'
p9108
I690
sS'brush'
p9109
I1808
sS'negate'
p9110
I13
sS'gurgle'
p9111
I101
sS'nuke'
p9112
I8
sS'platoon'
p9113
I1
sS'grapevine'
p9114
I1
sS'transfer'
p9115
I272
sS'aweigh'
p9116
I1
sS'ee'
p9117
I2
sS'dynamite'
p9118
I1
sS're-do'
p9119
I7
sS'nourish'
p9120
I14
sS'epitimize'
p9121
I1
sS'shank'
p9122
I12
sS'unwrap'
p9123
I135
sS'accompanye'
p9124
I1
sS'thievin'
p9125
I1
sS'mutter'
p9126
I693
sS'assail'
p9127
I50
sS'squeeze'
p9128
I1944
sS'underthrew'
p9129
I3
sS'temp'
p9130
I1
sS'embolden'
p9131
I8
sS'recede'
p9132
I115
sS'distract'
p9133
I287
sS'retool'
p9134
I8
sS'record'
p9135
I457
sS'supplant'
p9136
I4
sS'cake'
p9137
I28
sS'demonstrate'
p9138
I246
sS'issue'
p9139
I351
sS'block'
p9140
I1631
sS'bewail'
p9141
I3
sS'jenny'
p9142
I1
sS'atten'
p9143
I1
sS'runof'
p9144
I1
sS'maroon'
p9145
I4
sS'half-yawn'
p9146
I1
sS're-divorced'
p9147
I1
sS'goodness'
p9148
I1
sS'counteract'
p9149
I11
sS'squirrel'
p9150
I3
sS'immobilize'
p9151
I15
sS'glint'
p9152
I194
sS'boot'
p9153
I30
sS'portion'
p9154
I1
sS'coffeed'
p9155
I1
sS'book'
p9156
I135
sS'boom'
p9157
I135
sS'branch'
p9158
I45
sS'straight-arm'
p9159
I3
sS'er'
p9160
I2
sS'sicc'
p9161
I1
sS'pantomime'
p9162
I13
sS'lance'
p9163
I47
sS'junk'
p9164
I1
sS'auscultate'
p9165
I1
sS'frustrate'
p9166
I45
sS'kinda'
p9167
I29
sS'squeak'
p9168
I251
sS'squeal'
p9169
I435
sS'extort'
p9170
I6
sS'sass'
p9171
I4
sS'galvanise'
p9172
I1
sS'jawbone'
p9173
I1
s.